
./rtarget:     file format elf64-x86-64


Disassembly of section .init:

0000000000400c48 <_init>:
  400c48:	48 83 ec 08          	sub    $0x8,%rsp
  400c4c:	48 8b 05 a5 43 20 00 	mov    0x2043a5(%rip),%rax        # 604ff8 <__gmon_start__>
  400c53:	48 85 c0             	test   %rax,%rax
  400c56:	74 02                	je     400c5a <_init+0x12>
  400c58:	ff d0                	callq  *%rax
  400c5a:	48 83 c4 08          	add    $0x8,%rsp
  400c5e:	c3                   	retq   

Disassembly of section .plt:

0000000000400c60 <.plt>:
  400c60:	ff 35 a2 43 20 00    	pushq  0x2043a2(%rip)        # 605008 <_GLOBAL_OFFSET_TABLE_+0x8>
  400c66:	ff 25 a4 43 20 00    	jmpq   *0x2043a4(%rip)        # 605010 <_GLOBAL_OFFSET_TABLE_+0x10>
  400c6c:	0f 1f 40 00          	nopl   0x0(%rax)

0000000000400c70 <strcasecmp@plt>:
  400c70:	ff 25 a2 43 20 00    	jmpq   *0x2043a2(%rip)        # 605018 <strcasecmp@GLIBC_2.2.5>
  400c76:	68 00 00 00 00       	pushq  $0x0
  400c7b:	e9 e0 ff ff ff       	jmpq   400c60 <.plt>

0000000000400c80 <__errno_location@plt>:
  400c80:	ff 25 9a 43 20 00    	jmpq   *0x20439a(%rip)        # 605020 <__errno_location@GLIBC_2.2.5>
  400c86:	68 01 00 00 00       	pushq  $0x1
  400c8b:	e9 d0 ff ff ff       	jmpq   400c60 <.plt>

0000000000400c90 <srandom@plt>:
  400c90:	ff 25 92 43 20 00    	jmpq   *0x204392(%rip)        # 605028 <srandom@GLIBC_2.2.5>
  400c96:	68 02 00 00 00       	pushq  $0x2
  400c9b:	e9 c0 ff ff ff       	jmpq   400c60 <.plt>

0000000000400ca0 <strncmp@plt>:
  400ca0:	ff 25 8a 43 20 00    	jmpq   *0x20438a(%rip)        # 605030 <strncmp@GLIBC_2.2.5>
  400ca6:	68 03 00 00 00       	pushq  $0x3
  400cab:	e9 b0 ff ff ff       	jmpq   400c60 <.plt>

0000000000400cb0 <strcpy@plt>:
  400cb0:	ff 25 82 43 20 00    	jmpq   *0x204382(%rip)        # 605038 <strcpy@GLIBC_2.2.5>
  400cb6:	68 04 00 00 00       	pushq  $0x4
  400cbb:	e9 a0 ff ff ff       	jmpq   400c60 <.plt>

0000000000400cc0 <puts@plt>:
  400cc0:	ff 25 7a 43 20 00    	jmpq   *0x20437a(%rip)        # 605040 <puts@GLIBC_2.2.5>
  400cc6:	68 05 00 00 00       	pushq  $0x5
  400ccb:	e9 90 ff ff ff       	jmpq   400c60 <.plt>

0000000000400cd0 <write@plt>:
  400cd0:	ff 25 72 43 20 00    	jmpq   *0x204372(%rip)        # 605048 <write@GLIBC_2.2.5>
  400cd6:	68 06 00 00 00       	pushq  $0x6
  400cdb:	e9 80 ff ff ff       	jmpq   400c60 <.plt>

0000000000400ce0 <__stack_chk_fail@plt>:
  400ce0:	ff 25 6a 43 20 00    	jmpq   *0x20436a(%rip)        # 605050 <__stack_chk_fail@GLIBC_2.4>
  400ce6:	68 07 00 00 00       	pushq  $0x7
  400ceb:	e9 70 ff ff ff       	jmpq   400c60 <.plt>

0000000000400cf0 <mmap@plt>:
  400cf0:	ff 25 62 43 20 00    	jmpq   *0x204362(%rip)        # 605058 <mmap@GLIBC_2.2.5>
  400cf6:	68 08 00 00 00       	pushq  $0x8
  400cfb:	e9 60 ff ff ff       	jmpq   400c60 <.plt>

0000000000400d00 <memset@plt>:
  400d00:	ff 25 5a 43 20 00    	jmpq   *0x20435a(%rip)        # 605060 <memset@GLIBC_2.2.5>
  400d06:	68 09 00 00 00       	pushq  $0x9
  400d0b:	e9 50 ff ff ff       	jmpq   400c60 <.plt>

0000000000400d10 <alarm@plt>:
  400d10:	ff 25 52 43 20 00    	jmpq   *0x204352(%rip)        # 605068 <alarm@GLIBC_2.2.5>
  400d16:	68 0a 00 00 00       	pushq  $0xa
  400d1b:	e9 40 ff ff ff       	jmpq   400c60 <.plt>

0000000000400d20 <close@plt>:
  400d20:	ff 25 4a 43 20 00    	jmpq   *0x20434a(%rip)        # 605070 <close@GLIBC_2.2.5>
  400d26:	68 0b 00 00 00       	pushq  $0xb
  400d2b:	e9 30 ff ff ff       	jmpq   400c60 <.plt>

0000000000400d30 <read@plt>:
  400d30:	ff 25 42 43 20 00    	jmpq   *0x204342(%rip)        # 605078 <read@GLIBC_2.2.5>
  400d36:	68 0c 00 00 00       	pushq  $0xc
  400d3b:	e9 20 ff ff ff       	jmpq   400c60 <.plt>

0000000000400d40 <signal@plt>:
  400d40:	ff 25 3a 43 20 00    	jmpq   *0x20433a(%rip)        # 605080 <signal@GLIBC_2.2.5>
  400d46:	68 0d 00 00 00       	pushq  $0xd
  400d4b:	e9 10 ff ff ff       	jmpq   400c60 <.plt>

0000000000400d50 <gethostbyname@plt>:
  400d50:	ff 25 32 43 20 00    	jmpq   *0x204332(%rip)        # 605088 <gethostbyname@GLIBC_2.2.5>
  400d56:	68 0e 00 00 00       	pushq  $0xe
  400d5b:	e9 00 ff ff ff       	jmpq   400c60 <.plt>

0000000000400d60 <__memmove_chk@plt>:
  400d60:	ff 25 2a 43 20 00    	jmpq   *0x20432a(%rip)        # 605090 <__memmove_chk@GLIBC_2.3.4>
  400d66:	68 0f 00 00 00       	pushq  $0xf
  400d6b:	e9 f0 fe ff ff       	jmpq   400c60 <.plt>

0000000000400d70 <strtol@plt>:
  400d70:	ff 25 22 43 20 00    	jmpq   *0x204322(%rip)        # 605098 <strtol@GLIBC_2.2.5>
  400d76:	68 10 00 00 00       	pushq  $0x10
  400d7b:	e9 e0 fe ff ff       	jmpq   400c60 <.plt>

0000000000400d80 <memcpy@plt>:
  400d80:	ff 25 1a 43 20 00    	jmpq   *0x20431a(%rip)        # 6050a0 <memcpy@GLIBC_2.14>
  400d86:	68 11 00 00 00       	pushq  $0x11
  400d8b:	e9 d0 fe ff ff       	jmpq   400c60 <.plt>

0000000000400d90 <time@plt>:
  400d90:	ff 25 12 43 20 00    	jmpq   *0x204312(%rip)        # 6050a8 <time@GLIBC_2.2.5>
  400d96:	68 12 00 00 00       	pushq  $0x12
  400d9b:	e9 c0 fe ff ff       	jmpq   400c60 <.plt>

0000000000400da0 <random@plt>:
  400da0:	ff 25 0a 43 20 00    	jmpq   *0x20430a(%rip)        # 6050b0 <random@GLIBC_2.2.5>
  400da6:	68 13 00 00 00       	pushq  $0x13
  400dab:	e9 b0 fe ff ff       	jmpq   400c60 <.plt>

0000000000400db0 <_IO_getc@plt>:
  400db0:	ff 25 02 43 20 00    	jmpq   *0x204302(%rip)        # 6050b8 <_IO_getc@GLIBC_2.2.5>
  400db6:	68 14 00 00 00       	pushq  $0x14
  400dbb:	e9 a0 fe ff ff       	jmpq   400c60 <.plt>

0000000000400dc0 <__isoc99_sscanf@plt>:
  400dc0:	ff 25 fa 42 20 00    	jmpq   *0x2042fa(%rip)        # 6050c0 <__isoc99_sscanf@GLIBC_2.7>
  400dc6:	68 15 00 00 00       	pushq  $0x15
  400dcb:	e9 90 fe ff ff       	jmpq   400c60 <.plt>

0000000000400dd0 <munmap@plt>:
  400dd0:	ff 25 f2 42 20 00    	jmpq   *0x2042f2(%rip)        # 6050c8 <munmap@GLIBC_2.2.5>
  400dd6:	68 16 00 00 00       	pushq  $0x16
  400ddb:	e9 80 fe ff ff       	jmpq   400c60 <.plt>

0000000000400de0 <__printf_chk@plt>:
  400de0:	ff 25 ea 42 20 00    	jmpq   *0x2042ea(%rip)        # 6050d0 <__printf_chk@GLIBC_2.3.4>
  400de6:	68 17 00 00 00       	pushq  $0x17
  400deb:	e9 70 fe ff ff       	jmpq   400c60 <.plt>

0000000000400df0 <fopen@plt>:
  400df0:	ff 25 e2 42 20 00    	jmpq   *0x2042e2(%rip)        # 6050d8 <fopen@GLIBC_2.2.5>
  400df6:	68 18 00 00 00       	pushq  $0x18
  400dfb:	e9 60 fe ff ff       	jmpq   400c60 <.plt>

0000000000400e00 <getopt@plt>:
  400e00:	ff 25 da 42 20 00    	jmpq   *0x2042da(%rip)        # 6050e0 <getopt@GLIBC_2.2.5>
  400e06:	68 19 00 00 00       	pushq  $0x19
  400e0b:	e9 50 fe ff ff       	jmpq   400c60 <.plt>

0000000000400e10 <strtoul@plt>:
  400e10:	ff 25 d2 42 20 00    	jmpq   *0x2042d2(%rip)        # 6050e8 <strtoul@GLIBC_2.2.5>
  400e16:	68 1a 00 00 00       	pushq  $0x1a
  400e1b:	e9 40 fe ff ff       	jmpq   400c60 <.plt>

0000000000400e20 <gethostname@plt>:
  400e20:	ff 25 ca 42 20 00    	jmpq   *0x2042ca(%rip)        # 6050f0 <gethostname@GLIBC_2.2.5>
  400e26:	68 1b 00 00 00       	pushq  $0x1b
  400e2b:	e9 30 fe ff ff       	jmpq   400c60 <.plt>

0000000000400e30 <exit@plt>:
  400e30:	ff 25 c2 42 20 00    	jmpq   *0x2042c2(%rip)        # 6050f8 <exit@GLIBC_2.2.5>
  400e36:	68 1c 00 00 00       	pushq  $0x1c
  400e3b:	e9 20 fe ff ff       	jmpq   400c60 <.plt>

0000000000400e40 <connect@plt>:
  400e40:	ff 25 ba 42 20 00    	jmpq   *0x2042ba(%rip)        # 605100 <connect@GLIBC_2.2.5>
  400e46:	68 1d 00 00 00       	pushq  $0x1d
  400e4b:	e9 10 fe ff ff       	jmpq   400c60 <.plt>

0000000000400e50 <__fprintf_chk@plt>:
  400e50:	ff 25 b2 42 20 00    	jmpq   *0x2042b2(%rip)        # 605108 <__fprintf_chk@GLIBC_2.3.4>
  400e56:	68 1e 00 00 00       	pushq  $0x1e
  400e5b:	e9 00 fe ff ff       	jmpq   400c60 <.plt>

0000000000400e60 <__sprintf_chk@plt>:
  400e60:	ff 25 aa 42 20 00    	jmpq   *0x2042aa(%rip)        # 605110 <__sprintf_chk@GLIBC_2.3.4>
  400e66:	68 1f 00 00 00       	pushq  $0x1f
  400e6b:	e9 f0 fd ff ff       	jmpq   400c60 <.plt>

0000000000400e70 <socket@plt>:
  400e70:	ff 25 a2 42 20 00    	jmpq   *0x2042a2(%rip)        # 605118 <socket@GLIBC_2.2.5>
  400e76:	68 20 00 00 00       	pushq  $0x20
  400e7b:	e9 e0 fd ff ff       	jmpq   400c60 <.plt>

Disassembly of section .text:

0000000000400e80 <_start>:
  400e80:	31 ed                	xor    %ebp,%ebp
  400e82:	49 89 d1             	mov    %rdx,%r9
  400e85:	5e                   	pop    %rsi
  400e86:	48 89 e2             	mov    %rsp,%rdx
  400e89:	48 83 e4 f0          	and    $0xfffffffffffffff0,%rsp
  400e8d:	50                   	push   %rax
  400e8e:	54                   	push   %rsp
  400e8f:	49 c7 c0 80 2f 40 00 	mov    $0x402f80,%r8
  400e96:	48 c7 c1 10 2f 40 00 	mov    $0x402f10,%rcx
  400e9d:	48 c7 c7 73 11 40 00 	mov    $0x401173,%rdi
  400ea4:	ff 15 46 41 20 00    	callq  *0x204146(%rip)        # 604ff0 <__libc_start_main@GLIBC_2.2.5>
  400eaa:	f4                   	hlt    
  400eab:	0f 1f 44 00 00       	nopl   0x0(%rax,%rax,1)

0000000000400eb0 <_dl_relocate_static_pie>:
  400eb0:	f3 c3                	repz retq 
  400eb2:	66 2e 0f 1f 84 00 00 	nopw   %cs:0x0(%rax,%rax,1)
  400eb9:	00 00 00 
  400ebc:	0f 1f 40 00          	nopl   0x0(%rax)

0000000000400ec0 <deregister_tm_clones>:
  400ec0:	55                   	push   %rbp
  400ec1:	b8 90 54 60 00       	mov    $0x605490,%eax
  400ec6:	48 3d 90 54 60 00    	cmp    $0x605490,%rax
  400ecc:	48 89 e5             	mov    %rsp,%rbp
  400ecf:	74 17                	je     400ee8 <deregister_tm_clones+0x28>
  400ed1:	b8 00 00 00 00       	mov    $0x0,%eax
  400ed6:	48 85 c0             	test   %rax,%rax
  400ed9:	74 0d                	je     400ee8 <deregister_tm_clones+0x28>
  400edb:	5d                   	pop    %rbp
  400edc:	bf 90 54 60 00       	mov    $0x605490,%edi
  400ee1:	ff e0                	jmpq   *%rax
  400ee3:	0f 1f 44 00 00       	nopl   0x0(%rax,%rax,1)
  400ee8:	5d                   	pop    %rbp
  400ee9:	c3                   	retq   
  400eea:	66 0f 1f 44 00 00    	nopw   0x0(%rax,%rax,1)

0000000000400ef0 <register_tm_clones>:
  400ef0:	be 90 54 60 00       	mov    $0x605490,%esi
  400ef5:	55                   	push   %rbp
  400ef6:	48 81 ee 90 54 60 00 	sub    $0x605490,%rsi
  400efd:	48 89 e5             	mov    %rsp,%rbp
  400f00:	48 c1 fe 03          	sar    $0x3,%rsi
  400f04:	48 89 f0             	mov    %rsi,%rax
  400f07:	48 c1 e8 3f          	shr    $0x3f,%rax
  400f0b:	48 01 c6             	add    %rax,%rsi
  400f0e:	48 d1 fe             	sar    %rsi
  400f11:	74 15                	je     400f28 <register_tm_clones+0x38>
  400f13:	b8 00 00 00 00       	mov    $0x0,%eax
  400f18:	48 85 c0             	test   %rax,%rax
  400f1b:	74 0b                	je     400f28 <register_tm_clones+0x38>
  400f1d:	5d                   	pop    %rbp
  400f1e:	bf 90 54 60 00       	mov    $0x605490,%edi
  400f23:	ff e0                	jmpq   *%rax
  400f25:	0f 1f 00             	nopl   (%rax)
  400f28:	5d                   	pop    %rbp
  400f29:	c3                   	retq   
  400f2a:	66 0f 1f 44 00 00    	nopw   0x0(%rax,%rax,1)

0000000000400f30 <__do_global_dtors_aux>:
  400f30:	80 3d 91 45 20 00 00 	cmpb   $0x0,0x204591(%rip)        # 6054c8 <completed.7698>
  400f37:	75 17                	jne    400f50 <__do_global_dtors_aux+0x20>
  400f39:	55                   	push   %rbp
  400f3a:	48 89 e5             	mov    %rsp,%rbp
  400f3d:	e8 7e ff ff ff       	callq  400ec0 <deregister_tm_clones>
  400f42:	c6 05 7f 45 20 00 01 	movb   $0x1,0x20457f(%rip)        # 6054c8 <completed.7698>
  400f49:	5d                   	pop    %rbp
  400f4a:	c3                   	retq   
  400f4b:	0f 1f 44 00 00       	nopl   0x0(%rax,%rax,1)
  400f50:	f3 c3                	repz retq 
  400f52:	0f 1f 40 00          	nopl   0x0(%rax)
  400f56:	66 2e 0f 1f 84 00 00 	nopw   %cs:0x0(%rax,%rax,1)
  400f5d:	00 00 00 

0000000000400f60 <frame_dummy>:
  400f60:	55                   	push   %rbp
  400f61:	48 89 e5             	mov    %rsp,%rbp
  400f64:	5d                   	pop    %rbp
  400f65:	eb 89                	jmp    400ef0 <register_tm_clones>

0000000000400f67 <usage>:
  400f67:	48 83 ec 08          	sub    $0x8,%rsp
  400f6b:	48 89 fa             	mov    %rdi,%rdx
  400f6e:	83 3d 93 45 20 00 00 	cmpl   $0x0,0x204593(%rip)        # 605508 <is_checker>
  400f75:	74 46                	je     400fbd <usage+0x56>
  400f77:	be 98 2f 40 00       	mov    $0x402f98,%esi
  400f7c:	bf 01 00 00 00       	mov    $0x1,%edi
  400f81:	b8 00 00 00 00       	mov    $0x0,%eax
  400f86:	e8 55 fe ff ff       	callq  400de0 <__printf_chk@plt>
  400f8b:	bf d0 2f 40 00       	mov    $0x402fd0,%edi
  400f90:	e8 2b fd ff ff       	callq  400cc0 <puts@plt>
  400f95:	bf 48 31 40 00       	mov    $0x403148,%edi
  400f9a:	e8 21 fd ff ff       	callq  400cc0 <puts@plt>
  400f9f:	bf f8 2f 40 00       	mov    $0x402ff8,%edi
  400fa4:	e8 17 fd ff ff       	callq  400cc0 <puts@plt>
  400fa9:	bf 62 31 40 00       	mov    $0x403162,%edi
  400fae:	e8 0d fd ff ff       	callq  400cc0 <puts@plt>
  400fb3:	bf 00 00 00 00       	mov    $0x0,%edi
  400fb8:	e8 73 fe ff ff       	callq  400e30 <exit@plt>
  400fbd:	be 7e 31 40 00       	mov    $0x40317e,%esi
  400fc2:	bf 01 00 00 00       	mov    $0x1,%edi
  400fc7:	b8 00 00 00 00       	mov    $0x0,%eax
  400fcc:	e8 0f fe ff ff       	callq  400de0 <__printf_chk@plt>
  400fd1:	bf 20 30 40 00       	mov    $0x403020,%edi
  400fd6:	e8 e5 fc ff ff       	callq  400cc0 <puts@plt>
  400fdb:	bf 48 30 40 00       	mov    $0x403048,%edi
  400fe0:	e8 db fc ff ff       	callq  400cc0 <puts@plt>
  400fe5:	bf 9c 31 40 00       	mov    $0x40319c,%edi
  400fea:	e8 d1 fc ff ff       	callq  400cc0 <puts@plt>
  400fef:	eb c2                	jmp    400fb3 <usage+0x4c>

0000000000400ff1 <initialize_target>:
  400ff1:	55                   	push   %rbp
  400ff2:	53                   	push   %rbx
  400ff3:	48 81 ec 18 21 00 00 	sub    $0x2118,%rsp
  400ffa:	89 f5                	mov    %esi,%ebp
  400ffc:	64 48 8b 04 25 28 00 	mov    %fs:0x28,%rax
  401003:	00 00 
  401005:	48 89 84 24 08 21 00 	mov    %rax,0x2108(%rsp)
  40100c:	00 
  40100d:	31 c0                	xor    %eax,%eax
  40100f:	89 3d e3 44 20 00    	mov    %edi,0x2044e3(%rip)        # 6054f8 <check_level>
  401015:	8b 3d 2d 41 20 00    	mov    0x20412d(%rip),%edi        # 605148 <target_id>
  40101b:	e8 c8 1e 00 00       	callq  402ee8 <gencookie>
  401020:	89 05 de 44 20 00    	mov    %eax,0x2044de(%rip)        # 605504 <cookie>
  401026:	89 c7                	mov    %eax,%edi
  401028:	e8 bb 1e 00 00       	callq  402ee8 <gencookie>
  40102d:	89 05 cd 44 20 00    	mov    %eax,0x2044cd(%rip)        # 605500 <authkey>
  401033:	8b 05 0f 41 20 00    	mov    0x20410f(%rip),%eax        # 605148 <target_id>
  401039:	8d 78 01             	lea    0x1(%rax),%edi
  40103c:	e8 4f fc ff ff       	callq  400c90 <srandom@plt>
  401041:	e8 5a fd ff ff       	callq  400da0 <random@plt>
  401046:	89 c7                	mov    %eax,%edi
  401048:	e8 f2 02 00 00       	callq  40133f <scramble>
  40104d:	89 c3                	mov    %eax,%ebx
  40104f:	85 ed                	test   %ebp,%ebp
  401051:	75 54                	jne    4010a7 <initialize_target+0xb6>
  401053:	b8 00 00 00 00       	mov    $0x0,%eax
  401058:	01 d8                	add    %ebx,%eax
  40105a:	0f b7 c0             	movzwl %ax,%eax
  40105d:	8d 04 c5 00 01 00 00 	lea    0x100(,%rax,8),%eax
  401064:	89 c0                	mov    %eax,%eax
  401066:	48 89 05 13 44 20 00 	mov    %rax,0x204413(%rip)        # 605480 <buf_offset>
  40106d:	c6 05 b4 50 20 00 72 	movb   $0x72,0x2050b4(%rip)        # 606128 <target_prefix>
  401074:	83 3d 0d 44 20 00 00 	cmpl   $0x0,0x20440d(%rip)        # 605488 <notify>
  40107b:	74 09                	je     401086 <initialize_target+0x95>
  40107d:	83 3d 84 44 20 00 00 	cmpl   $0x0,0x204484(%rip)        # 605508 <is_checker>
  401084:	74 39                	je     4010bf <initialize_target+0xce>
  401086:	48 8b 84 24 08 21 00 	mov    0x2108(%rsp),%rax
  40108d:	00 
  40108e:	64 48 33 04 25 28 00 	xor    %fs:0x28,%rax
  401095:	00 00 
  401097:	0f 85 d1 00 00 00    	jne    40116e <initialize_target+0x17d>
  40109d:	48 81 c4 18 21 00 00 	add    $0x2118,%rsp
  4010a4:	5b                   	pop    %rbx
  4010a5:	5d                   	pop    %rbp
  4010a6:	c3                   	retq   
  4010a7:	bf 00 00 00 00       	mov    $0x0,%edi
  4010ac:	e8 df fc ff ff       	callq  400d90 <time@plt>
  4010b1:	89 c7                	mov    %eax,%edi
  4010b3:	e8 d8 fb ff ff       	callq  400c90 <srandom@plt>
  4010b8:	e8 e3 fc ff ff       	callq  400da0 <random@plt>
  4010bd:	eb 99                	jmp    401058 <initialize_target+0x67>
  4010bf:	be 00 01 00 00       	mov    $0x100,%esi
  4010c4:	48 89 e7             	mov    %rsp,%rdi
  4010c7:	e8 54 fd ff ff       	callq  400e20 <gethostname@plt>
  4010cc:	89 c5                	mov    %eax,%ebp
  4010ce:	85 c0                	test   %eax,%eax
  4010d0:	75 23                	jne    4010f5 <initialize_target+0x104>
  4010d2:	89 c3                	mov    %eax,%ebx
  4010d4:	48 63 c3             	movslq %ebx,%rax
  4010d7:	48 8b 3c c5 60 51 60 	mov    0x605160(,%rax,8),%rdi
  4010de:	00 
  4010df:	48 85 ff             	test   %rdi,%rdi
  4010e2:	74 2a                	je     40110e <initialize_target+0x11d>
  4010e4:	48 89 e6             	mov    %rsp,%rsi
  4010e7:	e8 84 fb ff ff       	callq  400c70 <strcasecmp@plt>
  4010ec:	85 c0                	test   %eax,%eax
  4010ee:	74 19                	je     401109 <initialize_target+0x118>
  4010f0:	83 c3 01             	add    $0x1,%ebx
  4010f3:	eb df                	jmp    4010d4 <initialize_target+0xe3>
  4010f5:	bf 78 30 40 00       	mov    $0x403078,%edi
  4010fa:	e8 c1 fb ff ff       	callq  400cc0 <puts@plt>
  4010ff:	bf 08 00 00 00       	mov    $0x8,%edi
  401104:	e8 27 fd ff ff       	callq  400e30 <exit@plt>
  401109:	bd 01 00 00 00       	mov    $0x1,%ebp
  40110e:	85 ed                	test   %ebp,%ebp
  401110:	74 3b                	je     40114d <initialize_target+0x15c>
  401112:	48 8d bc 24 00 01 00 	lea    0x100(%rsp),%rdi
  401119:	00 
  40111a:	e8 1e 1b 00 00       	callq  402c3d <init_driver>
  40111f:	85 c0                	test   %eax,%eax
  401121:	0f 89 5f ff ff ff    	jns    401086 <initialize_target+0x95>
  401127:	48 8d 94 24 00 01 00 	lea    0x100(%rsp),%rdx
  40112e:	00 
  40112f:	be f0 30 40 00       	mov    $0x4030f0,%esi
  401134:	bf 01 00 00 00       	mov    $0x1,%edi
  401139:	b8 00 00 00 00       	mov    $0x0,%eax
  40113e:	e8 9d fc ff ff       	callq  400de0 <__printf_chk@plt>
  401143:	bf 08 00 00 00       	mov    $0x8,%edi
  401148:	e8 e3 fc ff ff       	callq  400e30 <exit@plt>
  40114d:	48 89 e2             	mov    %rsp,%rdx
  401150:	be b0 30 40 00       	mov    $0x4030b0,%esi
  401155:	bf 01 00 00 00       	mov    $0x1,%edi
  40115a:	b8 00 00 00 00       	mov    $0x0,%eax
  40115f:	e8 7c fc ff ff       	callq  400de0 <__printf_chk@plt>
  401164:	bf 08 00 00 00       	mov    $0x8,%edi
  401169:	e8 c2 fc ff ff       	callq  400e30 <exit@plt>
  40116e:	e8 6d fb ff ff       	callq  400ce0 <__stack_chk_fail@plt>

0000000000401173 <main>:
  401173:	41 56                	push   %r14
  401175:	41 55                	push   %r13
  401177:	41 54                	push   %r12
  401179:	55                   	push   %rbp
  40117a:	53                   	push   %rbx
  40117b:	41 89 fc             	mov    %edi,%r12d
  40117e:	48 89 f3             	mov    %rsi,%rbx
  401181:	be 7a 1f 40 00       	mov    $0x401f7a,%esi
  401186:	bf 0b 00 00 00       	mov    $0xb,%edi
  40118b:	e8 b0 fb ff ff       	callq  400d40 <signal@plt>
  401190:	be 2c 1f 40 00       	mov    $0x401f2c,%esi
  401195:	bf 07 00 00 00       	mov    $0x7,%edi
  40119a:	e8 a1 fb ff ff       	callq  400d40 <signal@plt>
  40119f:	be c8 1f 40 00       	mov    $0x401fc8,%esi
  4011a4:	bf 04 00 00 00       	mov    $0x4,%edi
  4011a9:	e8 92 fb ff ff       	callq  400d40 <signal@plt>
  4011ae:	83 3d 53 43 20 00 00 	cmpl   $0x0,0x204353(%rip)        # 605508 <is_checker>
  4011b5:	75 24                	jne    4011db <main+0x68>
  4011b7:	bd b5 31 40 00       	mov    $0x4031b5,%ebp
  4011bc:	48 8b 05 dd 42 20 00 	mov    0x2042dd(%rip),%rax        # 6054a0 <stdin@@GLIBC_2.2.5>
  4011c3:	48 89 05 26 43 20 00 	mov    %rax,0x204326(%rip)        # 6054f0 <infile>
  4011ca:	41 bd 00 00 00 00    	mov    $0x0,%r13d
  4011d0:	41 be 00 00 00 00    	mov    $0x0,%r14d
  4011d6:	e9 85 00 00 00       	jmpq   401260 <main+0xed>
  4011db:	be 16 20 40 00       	mov    $0x402016,%esi
  4011e0:	bf 0e 00 00 00       	mov    $0xe,%edi
  4011e5:	e8 56 fb ff ff       	callq  400d40 <signal@plt>
  4011ea:	bf 05 00 00 00       	mov    $0x5,%edi
  4011ef:	e8 1c fb ff ff       	callq  400d10 <alarm@plt>
  4011f4:	bd ba 31 40 00       	mov    $0x4031ba,%ebp
  4011f9:	eb c1                	jmp    4011bc <main+0x49>
  4011fb:	48 8b 3b             	mov    (%rbx),%rdi
  4011fe:	e8 64 fd ff ff       	callq  400f67 <usage>
  401203:	be 85 34 40 00       	mov    $0x403485,%esi
  401208:	48 8b 3d 99 42 20 00 	mov    0x204299(%rip),%rdi        # 6054a8 <optarg@@GLIBC_2.2.5>
  40120f:	e8 dc fb ff ff       	callq  400df0 <fopen@plt>
  401214:	48 89 05 d5 42 20 00 	mov    %rax,0x2042d5(%rip)        # 6054f0 <infile>
  40121b:	48 85 c0             	test   %rax,%rax
  40121e:	75 40                	jne    401260 <main+0xed>
  401220:	48 8b 0d 81 42 20 00 	mov    0x204281(%rip),%rcx        # 6054a8 <optarg@@GLIBC_2.2.5>
  401227:	ba c2 31 40 00       	mov    $0x4031c2,%edx
  40122c:	be 01 00 00 00       	mov    $0x1,%esi
  401231:	48 8b 3d 88 42 20 00 	mov    0x204288(%rip),%rdi        # 6054c0 <stderr@@GLIBC_2.2.5>
  401238:	e8 13 fc ff ff       	callq  400e50 <__fprintf_chk@plt>
  40123d:	b8 01 00 00 00       	mov    $0x1,%eax
  401242:	e9 cc 00 00 00       	jmpq   401313 <main+0x1a0>
  401247:	ba 10 00 00 00       	mov    $0x10,%edx
  40124c:	be 00 00 00 00       	mov    $0x0,%esi
  401251:	48 8b 3d 50 42 20 00 	mov    0x204250(%rip),%rdi        # 6054a8 <optarg@@GLIBC_2.2.5>
  401258:	e8 b3 fb ff ff       	callq  400e10 <strtoul@plt>
  40125d:	41 89 c6             	mov    %eax,%r14d
  401260:	48 89 ea             	mov    %rbp,%rdx
  401263:	48 89 de             	mov    %rbx,%rsi
  401266:	44 89 e7             	mov    %r12d,%edi
  401269:	e8 92 fb ff ff       	callq  400e00 <getopt@plt>
  40126e:	3c ff                	cmp    $0xff,%al
  401270:	74 57                	je     4012c9 <main+0x156>
  401272:	0f be d0             	movsbl %al,%edx
  401275:	83 e8 61             	sub    $0x61,%eax
  401278:	3c 10                	cmp    $0x10,%al
  40127a:	77 31                	ja     4012ad <main+0x13a>
  40127c:	0f b6 c0             	movzbl %al,%eax
  40127f:	ff 24 c5 00 32 40 00 	jmpq   *0x403200(,%rax,8)
  401286:	ba 0a 00 00 00       	mov    $0xa,%edx
  40128b:	be 00 00 00 00       	mov    $0x0,%esi
  401290:	48 8b 3d 11 42 20 00 	mov    0x204211(%rip),%rdi        # 6054a8 <optarg@@GLIBC_2.2.5>
  401297:	e8 d4 fa ff ff       	callq  400d70 <strtol@plt>
  40129c:	41 89 c5             	mov    %eax,%r13d
  40129f:	eb bf                	jmp    401260 <main+0xed>
  4012a1:	c7 05 dd 41 20 00 00 	movl   $0x0,0x2041dd(%rip)        # 605488 <notify>
  4012a8:	00 00 00 
  4012ab:	eb b3                	jmp    401260 <main+0xed>
  4012ad:	be df 31 40 00       	mov    $0x4031df,%esi
  4012b2:	bf 01 00 00 00       	mov    $0x1,%edi
  4012b7:	b8 00 00 00 00       	mov    $0x0,%eax
  4012bc:	e8 1f fb ff ff       	callq  400de0 <__printf_chk@plt>
  4012c1:	48 8b 3b             	mov    (%rbx),%rdi
  4012c4:	e8 9e fc ff ff       	callq  400f67 <usage>
  4012c9:	be 01 00 00 00       	mov    $0x1,%esi
  4012ce:	44 89 ef             	mov    %r13d,%edi
  4012d1:	e8 1b fd ff ff       	callq  400ff1 <initialize_target>
  4012d6:	83 3d 2b 42 20 00 00 	cmpl   $0x0,0x20422b(%rip)        # 605508 <is_checker>
  4012dd:	74 09                	je     4012e8 <main+0x175>
  4012df:	44 39 35 1a 42 20 00 	cmp    %r14d,0x20421a(%rip)        # 605500 <authkey>
  4012e6:	75 34                	jne    40131c <main+0x1a9>
  4012e8:	8b 15 16 42 20 00    	mov    0x204216(%rip),%edx        # 605504 <cookie>
  4012ee:	be f2 31 40 00       	mov    $0x4031f2,%esi
  4012f3:	bf 01 00 00 00       	mov    $0x1,%edi
  4012f8:	b8 00 00 00 00       	mov    $0x0,%eax
  4012fd:	e8 de fa ff ff       	callq  400de0 <__printf_chk@plt>
  401302:	48 8b 3d 77 41 20 00 	mov    0x204177(%rip),%rdi        # 605480 <buf_offset>
  401309:	e8 5b 0d 00 00       	callq  402069 <launch>
  40130e:	b8 00 00 00 00       	mov    $0x0,%eax
  401313:	5b                   	pop    %rbx
  401314:	5d                   	pop    %rbp
  401315:	41 5c                	pop    %r12
  401317:	41 5d                	pop    %r13
  401319:	41 5e                	pop    %r14
  40131b:	c3                   	retq   
  40131c:	44 89 f2             	mov    %r14d,%edx
  40131f:	be 18 31 40 00       	mov    $0x403118,%esi
  401324:	bf 01 00 00 00       	mov    $0x1,%edi
  401329:	b8 00 00 00 00       	mov    $0x0,%eax
  40132e:	e8 ad fa ff ff       	callq  400de0 <__printf_chk@plt>
  401333:	b8 00 00 00 00       	mov    $0x0,%eax
  401338:	e8 78 08 00 00       	callq  401bb5 <check_fail>
  40133d:	eb a9                	jmp    4012e8 <main+0x175>

000000000040133f <scramble>:
  40133f:	48 83 ec 38          	sub    $0x38,%rsp
  401343:	64 48 8b 04 25 28 00 	mov    %fs:0x28,%rax
  40134a:	00 00 
  40134c:	48 89 44 24 28       	mov    %rax,0x28(%rsp)
  401351:	31 c0                	xor    %eax,%eax
  401353:	eb 10                	jmp    401365 <scramble+0x26>
  401355:	69 d0 8f 1f 00 00    	imul   $0x1f8f,%eax,%edx
  40135b:	01 fa                	add    %edi,%edx
  40135d:	89 c1                	mov    %eax,%ecx
  40135f:	89 14 8c             	mov    %edx,(%rsp,%rcx,4)
  401362:	83 c0 01             	add    $0x1,%eax
  401365:	83 f8 09             	cmp    $0x9,%eax
  401368:	76 eb                	jbe    401355 <scramble+0x16>
  40136a:	8b 44 24 20          	mov    0x20(%rsp),%eax
  40136e:	69 c0 f9 b4 00 00    	imul   $0xb4f9,%eax,%eax
  401374:	89 44 24 20          	mov    %eax,0x20(%rsp)
  401378:	8b 44 24 24          	mov    0x24(%rsp),%eax
  40137c:	69 c0 83 de 00 00    	imul   $0xde83,%eax,%eax
  401382:	89 44 24 24          	mov    %eax,0x24(%rsp)
  401386:	8b 44 24 04          	mov    0x4(%rsp),%eax
  40138a:	69 c0 ae 0b 00 00    	imul   $0xbae,%eax,%eax
  401390:	89 44 24 04          	mov    %eax,0x4(%rsp)
  401394:	8b 44 24 08          	mov    0x8(%rsp),%eax
  401398:	69 c0 59 b1 00 00    	imul   $0xb159,%eax,%eax
  40139e:	89 44 24 08          	mov    %eax,0x8(%rsp)
  4013a2:	8b 44 24 24          	mov    0x24(%rsp),%eax
  4013a6:	69 c0 cb d1 00 00    	imul   $0xd1cb,%eax,%eax
  4013ac:	89 44 24 24          	mov    %eax,0x24(%rsp)
  4013b0:	8b 44 24 0c          	mov    0xc(%rsp),%eax
  4013b4:	69 c0 38 0f 00 00    	imul   $0xf38,%eax,%eax
  4013ba:	89 44 24 0c          	mov    %eax,0xc(%rsp)
  4013be:	8b 44 24 10          	mov    0x10(%rsp),%eax
  4013c2:	69 c0 66 af 00 00    	imul   $0xaf66,%eax,%eax
  4013c8:	89 44 24 10          	mov    %eax,0x10(%rsp)
  4013cc:	8b 44 24 04          	mov    0x4(%rsp),%eax
  4013d0:	69 c0 aa cd 00 00    	imul   $0xcdaa,%eax,%eax
  4013d6:	89 44 24 04          	mov    %eax,0x4(%rsp)
  4013da:	8b 44 24 14          	mov    0x14(%rsp),%eax
  4013de:	69 c0 64 97 00 00    	imul   $0x9764,%eax,%eax
  4013e4:	89 44 24 14          	mov    %eax,0x14(%rsp)
  4013e8:	8b 44 24 1c          	mov    0x1c(%rsp),%eax
  4013ec:	69 c0 24 dc 00 00    	imul   $0xdc24,%eax,%eax
  4013f2:	89 44 24 1c          	mov    %eax,0x1c(%rsp)
  4013f6:	8b 44 24 20          	mov    0x20(%rsp),%eax
  4013fa:	69 c0 d1 15 00 00    	imul   $0x15d1,%eax,%eax
  401400:	89 44 24 20          	mov    %eax,0x20(%rsp)
  401404:	8b 44 24 04          	mov    0x4(%rsp),%eax
  401408:	69 c0 bd 37 00 00    	imul   $0x37bd,%eax,%eax
  40140e:	89 44 24 04          	mov    %eax,0x4(%rsp)
  401412:	8b 44 24 10          	mov    0x10(%rsp),%eax
  401416:	69 c0 bb 1e 00 00    	imul   $0x1ebb,%eax,%eax
  40141c:	89 44 24 10          	mov    %eax,0x10(%rsp)
  401420:	8b 44 24 1c          	mov    0x1c(%rsp),%eax
  401424:	69 c0 9f 14 00 00    	imul   $0x149f,%eax,%eax
  40142a:	89 44 24 1c          	mov    %eax,0x1c(%rsp)
  40142e:	8b 44 24 0c          	mov    0xc(%rsp),%eax
  401432:	69 c0 e2 93 00 00    	imul   $0x93e2,%eax,%eax
  401438:	89 44 24 0c          	mov    %eax,0xc(%rsp)
  40143c:	8b 44 24 14          	mov    0x14(%rsp),%eax
  401440:	69 c0 be 03 00 00    	imul   $0x3be,%eax,%eax
  401446:	89 44 24 14          	mov    %eax,0x14(%rsp)
  40144a:	8b 44 24 20          	mov    0x20(%rsp),%eax
  40144e:	69 c0 34 23 00 00    	imul   $0x2334,%eax,%eax
  401454:	89 44 24 20          	mov    %eax,0x20(%rsp)
  401458:	8b 44 24 20          	mov    0x20(%rsp),%eax
  40145c:	69 c0 4c 0d 00 00    	imul   $0xd4c,%eax,%eax
  401462:	89 44 24 20          	mov    %eax,0x20(%rsp)
  401466:	8b 44 24 04          	mov    0x4(%rsp),%eax
  40146a:	69 c0 51 c8 00 00    	imul   $0xc851,%eax,%eax
  401470:	89 44 24 04          	mov    %eax,0x4(%rsp)
  401474:	8b 04 24             	mov    (%rsp),%eax
  401477:	69 c0 8a 0d 00 00    	imul   $0xd8a,%eax,%eax
  40147d:	89 04 24             	mov    %eax,(%rsp)
  401480:	8b 44 24 18          	mov    0x18(%rsp),%eax
  401484:	69 c0 1c 63 00 00    	imul   $0x631c,%eax,%eax
  40148a:	89 44 24 18          	mov    %eax,0x18(%rsp)
  40148e:	8b 44 24 08          	mov    0x8(%rsp),%eax
  401492:	69 c0 47 1a 00 00    	imul   $0x1a47,%eax,%eax
  401498:	89 44 24 08          	mov    %eax,0x8(%rsp)
  40149c:	8b 44 24 1c          	mov    0x1c(%rsp),%eax
  4014a0:	69 c0 6e 7c 00 00    	imul   $0x7c6e,%eax,%eax
  4014a6:	89 44 24 1c          	mov    %eax,0x1c(%rsp)
  4014aa:	8b 44 24 04          	mov    0x4(%rsp),%eax
  4014ae:	69 c0 95 84 00 00    	imul   $0x8495,%eax,%eax
  4014b4:	89 44 24 04          	mov    %eax,0x4(%rsp)
  4014b8:	8b 44 24 14          	mov    0x14(%rsp),%eax
  4014bc:	69 c0 8c ba 00 00    	imul   $0xba8c,%eax,%eax
  4014c2:	89 44 24 14          	mov    %eax,0x14(%rsp)
  4014c6:	8b 44 24 04          	mov    0x4(%rsp),%eax
  4014ca:	69 c0 dc 22 00 00    	imul   $0x22dc,%eax,%eax
  4014d0:	89 44 24 04          	mov    %eax,0x4(%rsp)
  4014d4:	8b 44 24 20          	mov    0x20(%rsp),%eax
  4014d8:	69 c0 b8 94 00 00    	imul   $0x94b8,%eax,%eax
  4014de:	89 44 24 20          	mov    %eax,0x20(%rsp)
  4014e2:	8b 44 24 14          	mov    0x14(%rsp),%eax
  4014e6:	69 c0 34 bb 00 00    	imul   $0xbb34,%eax,%eax
  4014ec:	89 44 24 14          	mov    %eax,0x14(%rsp)
  4014f0:	8b 44 24 10          	mov    0x10(%rsp),%eax
  4014f4:	69 c0 a6 22 00 00    	imul   $0x22a6,%eax,%eax
  4014fa:	89 44 24 10          	mov    %eax,0x10(%rsp)
  4014fe:	8b 44 24 08          	mov    0x8(%rsp),%eax
  401502:	69 c0 a2 97 00 00    	imul   $0x97a2,%eax,%eax
  401508:	89 44 24 08          	mov    %eax,0x8(%rsp)
  40150c:	8b 44 24 14          	mov    0x14(%rsp),%eax
  401510:	69 c0 fb 5e 00 00    	imul   $0x5efb,%eax,%eax
  401516:	89 44 24 14          	mov    %eax,0x14(%rsp)
  40151a:	8b 44 24 24          	mov    0x24(%rsp),%eax
  40151e:	69 c0 63 ff 00 00    	imul   $0xff63,%eax,%eax
  401524:	89 44 24 24          	mov    %eax,0x24(%rsp)
  401528:	8b 44 24 0c          	mov    0xc(%rsp),%eax
  40152c:	69 c0 a3 7d 00 00    	imul   $0x7da3,%eax,%eax
  401532:	89 44 24 0c          	mov    %eax,0xc(%rsp)
  401536:	8b 44 24 18          	mov    0x18(%rsp),%eax
  40153a:	69 c0 11 b1 00 00    	imul   $0xb111,%eax,%eax
  401540:	89 44 24 18          	mov    %eax,0x18(%rsp)
  401544:	8b 44 24 08          	mov    0x8(%rsp),%eax
  401548:	69 c0 54 cb 00 00    	imul   $0xcb54,%eax,%eax
  40154e:	89 44 24 08          	mov    %eax,0x8(%rsp)
  401552:	8b 44 24 18          	mov    0x18(%rsp),%eax
  401556:	69 c0 10 e0 00 00    	imul   $0xe010,%eax,%eax
  40155c:	89 44 24 18          	mov    %eax,0x18(%rsp)
  401560:	8b 44 24 0c          	mov    0xc(%rsp),%eax
  401564:	69 c0 5e db 00 00    	imul   $0xdb5e,%eax,%eax
  40156a:	89 44 24 0c          	mov    %eax,0xc(%rsp)
  40156e:	8b 44 24 04          	mov    0x4(%rsp),%eax
  401572:	69 c0 f2 40 00 00    	imul   $0x40f2,%eax,%eax
  401578:	89 44 24 04          	mov    %eax,0x4(%rsp)
  40157c:	8b 44 24 14          	mov    0x14(%rsp),%eax
  401580:	69 c0 48 e2 00 00    	imul   $0xe248,%eax,%eax
  401586:	89 44 24 14          	mov    %eax,0x14(%rsp)
  40158a:	8b 44 24 10          	mov    0x10(%rsp),%eax
  40158e:	69 c0 a0 6b 00 00    	imul   $0x6ba0,%eax,%eax
  401594:	89 44 24 10          	mov    %eax,0x10(%rsp)
  401598:	8b 44 24 10          	mov    0x10(%rsp),%eax
  40159c:	69 c0 41 26 00 00    	imul   $0x2641,%eax,%eax
  4015a2:	89 44 24 10          	mov    %eax,0x10(%rsp)
  4015a6:	8b 44 24 24          	mov    0x24(%rsp),%eax
  4015aa:	69 c0 31 6d 00 00    	imul   $0x6d31,%eax,%eax
  4015b0:	89 44 24 24          	mov    %eax,0x24(%rsp)
  4015b4:	8b 44 24 0c          	mov    0xc(%rsp),%eax
  4015b8:	69 c0 16 e9 00 00    	imul   $0xe916,%eax,%eax
  4015be:	89 44 24 0c          	mov    %eax,0xc(%rsp)
  4015c2:	8b 44 24 20          	mov    0x20(%rsp),%eax
  4015c6:	69 c0 6c 6e 00 00    	imul   $0x6e6c,%eax,%eax
  4015cc:	89 44 24 20          	mov    %eax,0x20(%rsp)
  4015d0:	8b 44 24 1c          	mov    0x1c(%rsp),%eax
  4015d4:	69 c0 39 f8 00 00    	imul   $0xf839,%eax,%eax
  4015da:	89 44 24 1c          	mov    %eax,0x1c(%rsp)
  4015de:	8b 44 24 14          	mov    0x14(%rsp),%eax
  4015e2:	69 c0 44 c2 00 00    	imul   $0xc244,%eax,%eax
  4015e8:	89 44 24 14          	mov    %eax,0x14(%rsp)
  4015ec:	8b 44 24 24          	mov    0x24(%rsp),%eax
  4015f0:	69 c0 70 a1 00 00    	imul   $0xa170,%eax,%eax
  4015f6:	89 44 24 24          	mov    %eax,0x24(%rsp)
  4015fa:	8b 44 24 24          	mov    0x24(%rsp),%eax
  4015fe:	69 c0 64 d9 00 00    	imul   $0xd964,%eax,%eax
  401604:	89 44 24 24          	mov    %eax,0x24(%rsp)
  401608:	8b 44 24 18          	mov    0x18(%rsp),%eax
  40160c:	69 c0 56 ce 00 00    	imul   $0xce56,%eax,%eax
  401612:	89 44 24 18          	mov    %eax,0x18(%rsp)
  401616:	8b 44 24 20          	mov    0x20(%rsp),%eax
  40161a:	69 c0 07 65 00 00    	imul   $0x6507,%eax,%eax
  401620:	89 44 24 20          	mov    %eax,0x20(%rsp)
  401624:	8b 44 24 14          	mov    0x14(%rsp),%eax
  401628:	69 c0 12 49 00 00    	imul   $0x4912,%eax,%eax
  40162e:	89 44 24 14          	mov    %eax,0x14(%rsp)
  401632:	8b 44 24 20          	mov    0x20(%rsp),%eax
  401636:	69 c0 1a c8 00 00    	imul   $0xc81a,%eax,%eax
  40163c:	89 44 24 20          	mov    %eax,0x20(%rsp)
  401640:	8b 44 24 10          	mov    0x10(%rsp),%eax
  401644:	69 c0 6e 3f 00 00    	imul   $0x3f6e,%eax,%eax
  40164a:	89 44 24 10          	mov    %eax,0x10(%rsp)
  40164e:	8b 44 24 08          	mov    0x8(%rsp),%eax
  401652:	69 c0 3d 7c 00 00    	imul   $0x7c3d,%eax,%eax
  401658:	89 44 24 08          	mov    %eax,0x8(%rsp)
  40165c:	8b 44 24 14          	mov    0x14(%rsp),%eax
  401660:	69 c0 94 ce 00 00    	imul   $0xce94,%eax,%eax
  401666:	89 44 24 14          	mov    %eax,0x14(%rsp)
  40166a:	8b 44 24 0c          	mov    0xc(%rsp),%eax
  40166e:	69 c0 8a be 00 00    	imul   $0xbe8a,%eax,%eax
  401674:	89 44 24 0c          	mov    %eax,0xc(%rsp)
  401678:	8b 44 24 1c          	mov    0x1c(%rsp),%eax
  40167c:	69 c0 5a 76 00 00    	imul   $0x765a,%eax,%eax
  401682:	89 44 24 1c          	mov    %eax,0x1c(%rsp)
  401686:	8b 44 24 20          	mov    0x20(%rsp),%eax
  40168a:	69 c0 ce af 00 00    	imul   $0xafce,%eax,%eax
  401690:	89 44 24 20          	mov    %eax,0x20(%rsp)
  401694:	8b 44 24 18          	mov    0x18(%rsp),%eax
  401698:	69 c0 20 54 00 00    	imul   $0x5420,%eax,%eax
  40169e:	89 44 24 18          	mov    %eax,0x18(%rsp)
  4016a2:	8b 44 24 20          	mov    0x20(%rsp),%eax
  4016a6:	69 c0 2d 6b 00 00    	imul   $0x6b2d,%eax,%eax
  4016ac:	89 44 24 20          	mov    %eax,0x20(%rsp)
  4016b0:	8b 44 24 04          	mov    0x4(%rsp),%eax
  4016b4:	69 c0 49 24 00 00    	imul   $0x2449,%eax,%eax
  4016ba:	89 44 24 04          	mov    %eax,0x4(%rsp)
  4016be:	8b 44 24 24          	mov    0x24(%rsp),%eax
  4016c2:	69 c0 8f a3 00 00    	imul   $0xa38f,%eax,%eax
  4016c8:	89 44 24 24          	mov    %eax,0x24(%rsp)
  4016cc:	8b 44 24 04          	mov    0x4(%rsp),%eax
  4016d0:	69 c0 19 ef 00 00    	imul   $0xef19,%eax,%eax
  4016d6:	89 44 24 04          	mov    %eax,0x4(%rsp)
  4016da:	8b 44 24 14          	mov    0x14(%rsp),%eax
  4016de:	69 c0 cc e4 00 00    	imul   $0xe4cc,%eax,%eax
  4016e4:	89 44 24 14          	mov    %eax,0x14(%rsp)
  4016e8:	8b 44 24 14          	mov    0x14(%rsp),%eax
  4016ec:	69 c0 69 07 00 00    	imul   $0x769,%eax,%eax
  4016f2:	89 44 24 14          	mov    %eax,0x14(%rsp)
  4016f6:	8b 44 24 1c          	mov    0x1c(%rsp),%eax
  4016fa:	69 c0 1a 57 00 00    	imul   $0x571a,%eax,%eax
  401700:	89 44 24 1c          	mov    %eax,0x1c(%rsp)
  401704:	8b 04 24             	mov    (%rsp),%eax
  401707:	69 c0 ea 8e 00 00    	imul   $0x8eea,%eax,%eax
  40170d:	89 04 24             	mov    %eax,(%rsp)
  401710:	8b 44 24 08          	mov    0x8(%rsp),%eax
  401714:	69 c0 ec 74 00 00    	imul   $0x74ec,%eax,%eax
  40171a:	89 44 24 08          	mov    %eax,0x8(%rsp)
  40171e:	8b 44 24 24          	mov    0x24(%rsp),%eax
  401722:	69 c0 41 28 00 00    	imul   $0x2841,%eax,%eax
  401728:	89 44 24 24          	mov    %eax,0x24(%rsp)
  40172c:	8b 44 24 1c          	mov    0x1c(%rsp),%eax
  401730:	69 c0 0e f0 00 00    	imul   $0xf00e,%eax,%eax
  401736:	89 44 24 1c          	mov    %eax,0x1c(%rsp)
  40173a:	8b 44 24 10          	mov    0x10(%rsp),%eax
  40173e:	69 c0 07 d9 00 00    	imul   $0xd907,%eax,%eax
  401744:	89 44 24 10          	mov    %eax,0x10(%rsp)
  401748:	8b 44 24 24          	mov    0x24(%rsp),%eax
  40174c:	69 c0 aa eb 00 00    	imul   $0xebaa,%eax,%eax
  401752:	89 44 24 24          	mov    %eax,0x24(%rsp)
  401756:	8b 44 24 10          	mov    0x10(%rsp),%eax
  40175a:	69 c0 53 da 00 00    	imul   $0xda53,%eax,%eax
  401760:	89 44 24 10          	mov    %eax,0x10(%rsp)
  401764:	8b 44 24 08          	mov    0x8(%rsp),%eax
  401768:	69 c0 d1 ae 00 00    	imul   $0xaed1,%eax,%eax
  40176e:	89 44 24 08          	mov    %eax,0x8(%rsp)
  401772:	8b 44 24 18          	mov    0x18(%rsp),%eax
  401776:	69 c0 b2 b9 00 00    	imul   $0xb9b2,%eax,%eax
  40177c:	89 44 24 18          	mov    %eax,0x18(%rsp)
  401780:	8b 44 24 20          	mov    0x20(%rsp),%eax
  401784:	69 c0 ce 7a 00 00    	imul   $0x7ace,%eax,%eax
  40178a:	89 44 24 20          	mov    %eax,0x20(%rsp)
  40178e:	8b 44 24 1c          	mov    0x1c(%rsp),%eax
  401792:	69 c0 70 47 00 00    	imul   $0x4770,%eax,%eax
  401798:	89 44 24 1c          	mov    %eax,0x1c(%rsp)
  40179c:	8b 44 24 04          	mov    0x4(%rsp),%eax
  4017a0:	69 c0 b5 a3 00 00    	imul   $0xa3b5,%eax,%eax
  4017a6:	89 44 24 04          	mov    %eax,0x4(%rsp)
  4017aa:	8b 44 24 18          	mov    0x18(%rsp),%eax
  4017ae:	69 c0 50 9b 00 00    	imul   $0x9b50,%eax,%eax
  4017b4:	89 44 24 18          	mov    %eax,0x18(%rsp)
  4017b8:	8b 04 24             	mov    (%rsp),%eax
  4017bb:	69 c0 f8 f3 00 00    	imul   $0xf3f8,%eax,%eax
  4017c1:	89 04 24             	mov    %eax,(%rsp)
  4017c4:	8b 44 24 18          	mov    0x18(%rsp),%eax
  4017c8:	69 c0 55 d2 00 00    	imul   $0xd255,%eax,%eax
  4017ce:	89 44 24 18          	mov    %eax,0x18(%rsp)
  4017d2:	8b 44 24 10          	mov    0x10(%rsp),%eax
  4017d6:	69 c0 35 f3 00 00    	imul   $0xf335,%eax,%eax
  4017dc:	89 44 24 10          	mov    %eax,0x10(%rsp)
  4017e0:	8b 44 24 1c          	mov    0x1c(%rsp),%eax
  4017e4:	69 c0 47 6a 00 00    	imul   $0x6a47,%eax,%eax
  4017ea:	89 44 24 1c          	mov    %eax,0x1c(%rsp)
  4017ee:	8b 44 24 10          	mov    0x10(%rsp),%eax
  4017f2:	69 c0 98 2f 00 00    	imul   $0x2f98,%eax,%eax
  4017f8:	89 44 24 10          	mov    %eax,0x10(%rsp)
  4017fc:	8b 44 24 14          	mov    0x14(%rsp),%eax
  401800:	69 c0 4b 59 00 00    	imul   $0x594b,%eax,%eax
  401806:	89 44 24 14          	mov    %eax,0x14(%rsp)
  40180a:	ba 00 00 00 00       	mov    $0x0,%edx
  40180f:	b8 00 00 00 00       	mov    $0x0,%eax
  401814:	eb 0a                	jmp    401820 <scramble+0x4e1>
  401816:	89 d1                	mov    %edx,%ecx
  401818:	8b 0c 8c             	mov    (%rsp,%rcx,4),%ecx
  40181b:	01 c8                	add    %ecx,%eax
  40181d:	83 c2 01             	add    $0x1,%edx
  401820:	83 fa 09             	cmp    $0x9,%edx
  401823:	76 f1                	jbe    401816 <scramble+0x4d7>
  401825:	48 8b 74 24 28       	mov    0x28(%rsp),%rsi
  40182a:	64 48 33 34 25 28 00 	xor    %fs:0x28,%rsi
  401831:	00 00 
  401833:	75 05                	jne    40183a <scramble+0x4fb>
  401835:	48 83 c4 38          	add    $0x38,%rsp
  401839:	c3                   	retq   
  40183a:	e8 a1 f4 ff ff       	callq  400ce0 <__stack_chk_fail@plt>

000000000040183f <getbuf>:
  40183f:	48 83 ec 28          	sub    $0x28,%rsp
  401843:	48 89 e7             	mov    %rsp,%rdi
  401846:	e8 9f 03 00 00       	callq  401bea <Gets>
  40184b:	b8 01 00 00 00       	mov    $0x1,%eax
  401850:	48 83 c4 28          	add    $0x28,%rsp
  401854:	c3                   	retq   

0000000000401855 <touch1>:
  401855:	48 83 ec 08          	sub    $0x8,%rsp
  401859:	c7 05 99 3c 20 00 01 	movl   $0x1,0x203c99(%rip)        # 6054fc <vlevel>
  401860:	00 00 00 
  401863:	bf da 32 40 00       	mov    $0x4032da,%edi
  401868:	e8 53 f4 ff ff       	callq  400cc0 <puts@plt>
  40186d:	bf 01 00 00 00       	mov    $0x1,%edi
  401872:	e8 c8 05 00 00       	callq  401e3f <validate>
  401877:	bf 00 00 00 00       	mov    $0x0,%edi
  40187c:	e8 af f5 ff ff       	callq  400e30 <exit@plt>

0000000000401881 <touch2>:
  401881:	48 83 ec 08          	sub    $0x8,%rsp
  401885:	89 fa                	mov    %edi,%edx
  401887:	c7 05 6b 3c 20 00 02 	movl   $0x2,0x203c6b(%rip)        # 6054fc <vlevel>
  40188e:	00 00 00 
  401891:	39 3d 6d 3c 20 00    	cmp    %edi,0x203c6d(%rip)        # 605504 <cookie>
  401897:	74 28                	je     4018c1 <touch2+0x40>
  401899:	be 28 33 40 00       	mov    $0x403328,%esi
  40189e:	bf 01 00 00 00       	mov    $0x1,%edi
  4018a3:	b8 00 00 00 00       	mov    $0x0,%eax
  4018a8:	e8 33 f5 ff ff       	callq  400de0 <__printf_chk@plt>
  4018ad:	bf 02 00 00 00       	mov    $0x2,%edi
  4018b2:	e8 4d 06 00 00       	callq  401f04 <fail>
  4018b7:	bf 00 00 00 00       	mov    $0x0,%edi
  4018bc:	e8 6f f5 ff ff       	callq  400e30 <exit@plt>
  4018c1:	be 00 33 40 00       	mov    $0x403300,%esi
  4018c6:	bf 01 00 00 00       	mov    $0x1,%edi
  4018cb:	b8 00 00 00 00       	mov    $0x0,%eax
  4018d0:	e8 0b f5 ff ff       	callq  400de0 <__printf_chk@plt>
  4018d5:	bf 02 00 00 00       	mov    $0x2,%edi
  4018da:	e8 60 05 00 00       	callq  401e3f <validate>
  4018df:	eb d6                	jmp    4018b7 <touch2+0x36>

00000000004018e1 <hexmatch>:
  4018e1:	41 54                	push   %r12
  4018e3:	55                   	push   %rbp
  4018e4:	53                   	push   %rbx
  4018e5:	48 83 c4 80          	add    $0xffffffffffffff80,%rsp
  4018e9:	89 fd                	mov    %edi,%ebp
  4018eb:	48 89 f3             	mov    %rsi,%rbx
  4018ee:	64 48 8b 04 25 28 00 	mov    %fs:0x28,%rax
  4018f5:	00 00 
  4018f7:	48 89 44 24 78       	mov    %rax,0x78(%rsp)
  4018fc:	31 c0                	xor    %eax,%eax
  4018fe:	e8 9d f4 ff ff       	callq  400da0 <random@plt>
  401903:	48 89 c1             	mov    %rax,%rcx
  401906:	48 ba 0b d7 a3 70 3d 	movabs $0xa3d70a3d70a3d70b,%rdx
  40190d:	0a d7 a3 
  401910:	48 f7 ea             	imul   %rdx
  401913:	48 01 ca             	add    %rcx,%rdx
  401916:	48 c1 fa 06          	sar    $0x6,%rdx
  40191a:	48 89 c8             	mov    %rcx,%rax
  40191d:	48 c1 f8 3f          	sar    $0x3f,%rax
  401921:	48 29 c2             	sub    %rax,%rdx
  401924:	48 8d 04 92          	lea    (%rdx,%rdx,4),%rax
  401928:	48 8d 14 80          	lea    (%rax,%rax,4),%rdx
  40192c:	48 8d 04 95 00 00 00 	lea    0x0(,%rdx,4),%rax
  401933:	00 
  401934:	48 29 c1             	sub    %rax,%rcx
  401937:	4c 8d 24 0c          	lea    (%rsp,%rcx,1),%r12
  40193b:	41 89 e8             	mov    %ebp,%r8d
  40193e:	b9 f7 32 40 00       	mov    $0x4032f7,%ecx
  401943:	48 c7 c2 ff ff ff ff 	mov    $0xffffffffffffffff,%rdx
  40194a:	be 01 00 00 00       	mov    $0x1,%esi
  40194f:	4c 89 e7             	mov    %r12,%rdi
  401952:	b8 00 00 00 00       	mov    $0x0,%eax
  401957:	e8 04 f5 ff ff       	callq  400e60 <__sprintf_chk@plt>
  40195c:	ba 09 00 00 00       	mov    $0x9,%edx
  401961:	4c 89 e6             	mov    %r12,%rsi
  401964:	48 89 df             	mov    %rbx,%rdi
  401967:	e8 34 f3 ff ff       	callq  400ca0 <strncmp@plt>
  40196c:	85 c0                	test   %eax,%eax
  40196e:	0f 94 c0             	sete   %al
  401971:	48 8b 5c 24 78       	mov    0x78(%rsp),%rbx
  401976:	64 48 33 1c 25 28 00 	xor    %fs:0x28,%rbx
  40197d:	00 00 
  40197f:	75 0c                	jne    40198d <hexmatch+0xac>
  401981:	0f b6 c0             	movzbl %al,%eax
  401984:	48 83 ec 80          	sub    $0xffffffffffffff80,%rsp
  401988:	5b                   	pop    %rbx
  401989:	5d                   	pop    %rbp
  40198a:	41 5c                	pop    %r12
  40198c:	c3                   	retq   
  40198d:	e8 4e f3 ff ff       	callq  400ce0 <__stack_chk_fail@plt>

0000000000401992 <touch3>:
  401992:	53                   	push   %rbx
  401993:	48 89 fb             	mov    %rdi,%rbx
  401996:	c7 05 5c 3b 20 00 03 	movl   $0x3,0x203b5c(%rip)        # 6054fc <vlevel>
  40199d:	00 00 00 
  4019a0:	48 89 fe             	mov    %rdi,%rsi
  4019a3:	8b 3d 5b 3b 20 00    	mov    0x203b5b(%rip),%edi        # 605504 <cookie>
  4019a9:	e8 33 ff ff ff       	callq  4018e1 <hexmatch>
  4019ae:	85 c0                	test   %eax,%eax
  4019b0:	74 2b                	je     4019dd <touch3+0x4b>
  4019b2:	48 89 da             	mov    %rbx,%rdx
  4019b5:	be 50 33 40 00       	mov    $0x403350,%esi
  4019ba:	bf 01 00 00 00       	mov    $0x1,%edi
  4019bf:	b8 00 00 00 00       	mov    $0x0,%eax
  4019c4:	e8 17 f4 ff ff       	callq  400de0 <__printf_chk@plt>
  4019c9:	bf 03 00 00 00       	mov    $0x3,%edi
  4019ce:	e8 6c 04 00 00       	callq  401e3f <validate>
  4019d3:	bf 00 00 00 00       	mov    $0x0,%edi
  4019d8:	e8 53 f4 ff ff       	callq  400e30 <exit@plt>
  4019dd:	48 89 da             	mov    %rbx,%rdx
  4019e0:	be 78 33 40 00       	mov    $0x403378,%esi
  4019e5:	bf 01 00 00 00       	mov    $0x1,%edi
  4019ea:	b8 00 00 00 00       	mov    $0x0,%eax
  4019ef:	e8 ec f3 ff ff       	callq  400de0 <__printf_chk@plt>
  4019f4:	bf 03 00 00 00       	mov    $0x3,%edi
  4019f9:	e8 06 05 00 00       	callq  401f04 <fail>
  4019fe:	eb d3                	jmp    4019d3 <touch3+0x41>

0000000000401a00 <test>:
  401a00:	48 83 ec 08          	sub    $0x8,%rsp
  401a04:	b8 00 00 00 00       	mov    $0x0,%eax
  401a09:	e8 31 fe ff ff       	callq  40183f <getbuf>
  401a0e:	89 c2                	mov    %eax,%edx
  401a10:	be a0 33 40 00       	mov    $0x4033a0,%esi
  401a15:	bf 01 00 00 00       	mov    $0x1,%edi
  401a1a:	b8 00 00 00 00       	mov    $0x0,%eax
  401a1f:	e8 bc f3 ff ff       	callq  400de0 <__printf_chk@plt>
  401a24:	48 83 c4 08          	add    $0x8,%rsp
  401a28:	c3                   	retq   

0000000000401a29 <start_farm>:
  401a29:	b8 01 00 00 00       	mov    $0x1,%eax
  401a2e:	c3                   	retq   

0000000000401a2f <addval_424>:
  401a2f:	8d 87 a7 50 90 c3    	lea    -0x3c6faf59(%rdi),%eax
  401a35:	c3                   	retq   

0000000000401a36 <getval_130>:
  401a36:	b8 d8 c3 76 0f       	mov    $0xf76c3d8,%eax
  401a3b:	c3                   	retq   

0000000000401a3c <addval_232>:
  401a3c:	8d 87 48 89 c7 90    	lea    -0x6f3876b8(%rdi),%eax
  401a42:	c3                   	retq   

0000000000401a43 <getval_104>:
  401a43:	b8 48 89 c7 c3       	mov    $0xc3c78948,%eax
  401a48:	c3                   	retq   

0000000000401a49 <addval_489>:
  401a49:	8d 87 db 48 81 c7    	lea    -0x387eb725(%rdi),%eax
  401a4f:	c3                   	retq   

0000000000401a50 <setval_484>:
  401a50:	c7 07 58 90 90 c3    	movl   $0xc3909058,(%rdi)
  401a56:	c3                   	retq   

0000000000401a57 <addval_375>:
  401a57:	8d 87 58 90 90 c3    	lea    -0x3c6f6fa8(%rdi),%eax
  401a5d:	c3                   	retq   

0000000000401a5e <addval_499>:
  401a5e:	8d 87 4a 89 c7 c3    	lea    -0x3c3876b6(%rdi),%eax
  401a64:	c3                   	retq   

0000000000401a65 <mid_farm>:
  401a65:	b8 01 00 00 00       	mov    $0x1,%eax
  401a6a:	c3                   	retq   

0000000000401a6b <add_xy>:
  401a6b:	48 8d 04 37          	lea    (%rdi,%rsi,1),%rax
  401a6f:	c3                   	retq   

0000000000401a70 <getval_265>:
  401a70:	b8 5d 89 d6 90       	mov    $0x90d6895d,%eax
  401a75:	c3                   	retq   

0000000000401a76 <getval_350>:
  401a76:	b8 89 c1 c4 d2       	mov    $0xd2c4c189,%eax
  401a7b:	c3                   	retq   

0000000000401a7c <setval_200>:
  401a7c:	c7 07 48 89 e0 c1    	movl   $0xc1e08948,(%rdi)
  401a82:	c3                   	retq   

0000000000401a83 <setval_339>:
  401a83:	c7 07 89 ca 18 c9    	movl   $0xc918ca89,(%rdi)
  401a89:	c3                   	retq   

0000000000401a8a <setval_390>:
  401a8a:	c7 07 81 d6 08 db    	movl   $0xdb08d681,(%rdi)
  401a90:	c3                   	retq   

0000000000401a91 <getval_108>:
  401a91:	b8 48 89 e0 c2       	mov    $0xc2e08948,%eax
  401a96:	c3                   	retq   

0000000000401a97 <getval_332>:
  401a97:	b8 48 89 e0 c3       	mov    $0xc3e08948,%eax
  401a9c:	c3                   	retq   

0000000000401a9d <addval_235>:
  401a9d:	8d 87 ca e3 89 c1    	lea    -0x3e761c36(%rdi),%eax
  401aa3:	c3                   	retq   

0000000000401aa4 <addval_154>:
  401aa4:	8d 87 89 d6 18 c0    	lea    -0x3fe72977(%rdi),%eax
  401aaa:	c3                   	retq   

0000000000401aab <addval_374>:
  401aab:	8d 87 8b d6 08 c0    	lea    -0x3ff72975(%rdi),%eax
  401ab1:	c3                   	retq   

0000000000401ab2 <getval_465>:
  401ab2:	b8 89 c1 18 d2       	mov    $0xd218c189,%eax
  401ab7:	c3                   	retq   

0000000000401ab8 <setval_300>:
  401ab8:	c7 07 89 c1 c2 de    	movl   $0xdec2c189,(%rdi)
  401abe:	c3                   	retq   

0000000000401abf <addval_389>:
  401abf:	8d 87 8d d6 84 d2    	lea    -0x2d7b2973(%rdi),%eax
  401ac5:	c3                   	retq   

0000000000401ac6 <addval_352>:
  401ac6:	8d 87 89 ca c3 73    	lea    0x73c3ca89(%rdi),%eax
  401acc:	c3                   	retq   

0000000000401acd <setval_233>:
  401acd:	c7 07 48 89 e0 c7    	movl   $0xc7e08948,(%rdi)
  401ad3:	c3                   	retq   

0000000000401ad4 <setval_471>:
  401ad4:	c7 07 09 ca 08 d2    	movl   $0xd208ca09,(%rdi)
  401ada:	c3                   	retq   

0000000000401adb <addval_393>:
  401adb:	8d 87 89 d6 78 c9    	lea    -0x36872977(%rdi),%eax
  401ae1:	c3                   	retq   

0000000000401ae2 <setval_417>:
  401ae2:	c7 07 48 89 e0 c7    	movl   $0xc7e08948,(%rdi)
  401ae8:	c3                   	retq   

0000000000401ae9 <getval_451>:
  401ae9:	b8 89 ca 90 c3       	mov    $0xc390ca89,%eax
  401aee:	c3                   	retq   

0000000000401aef <setval_480>:
  401aef:	c7 07 89 c1 30 db    	movl   $0xdb30c189,(%rdi)
  401af5:	c3                   	retq   

0000000000401af6 <addval_242>:
  401af6:	8d 87 89 ca 28 d2    	lea    -0x2dd73577(%rdi),%eax
  401afc:	c3                   	retq   

0000000000401afd <getval_475>:
  401afd:	b8 99 ca 08 d2       	mov    $0xd208ca99,%eax
  401b02:	c3                   	retq   

0000000000401b03 <getval_435>:
  401b03:	b8 09 ca 38 c9       	mov    $0xc938ca09,%eax
  401b08:	c3                   	retq   

0000000000401b09 <setval_256>:
  401b09:	c7 07 12 4c 89 e0    	movl   $0xe0894c12,(%rdi)
  401b0f:	c3                   	retq   

0000000000401b10 <setval_481>:
  401b10:	c7 07 f8 89 ca 91    	movl   $0x91ca89f8,(%rdi)
  401b16:	c3                   	retq   

0000000000401b17 <getval_228>:
  401b17:	b8 88 48 99 e0       	mov    $0xe0994888,%eax
  401b1c:	c3                   	retq   

0000000000401b1d <addval_149>:
  401b1d:	8d 87 89 c1 48 d2    	lea    -0x2db73e77(%rdi),%eax
  401b23:	c3                   	retq   

0000000000401b24 <addval_397>:
  401b24:	8d 87 11 81 c1 c3    	lea    -0x3c3e7eef(%rdi),%eax
  401b2a:	c3                   	retq   

0000000000401b2b <setval_421>:
  401b2b:	c7 07 55 e0 a9 d6    	movl   $0xd6a9e055,(%rdi)
  401b31:	c3                   	retq   

0000000000401b32 <getval_196>:
  401b32:	b8 89 d6 84 c9       	mov    $0xc984d689,%eax
  401b37:	c3                   	retq   

0000000000401b38 <getval_174>:
  401b38:	b8 14 89 c1 c3       	mov    $0xc3c18914,%eax
  401b3d:	c3                   	retq   

0000000000401b3e <getval_262>:
  401b3e:	b8 48 89 e0 c3       	mov    $0xc3e08948,%eax
  401b43:	c3                   	retq   

0000000000401b44 <end_farm>:
  401b44:	b8 01 00 00 00       	mov    $0x1,%eax
  401b49:	c3                   	retq   

0000000000401b4a <save_char>:
  401b4a:	8b 05 d4 45 20 00    	mov    0x2045d4(%rip),%eax        # 606124 <gets_cnt>
  401b50:	3d ff 03 00 00       	cmp    $0x3ff,%eax
  401b55:	7f 49                	jg     401ba0 <save_char+0x56>
  401b57:	89 f9                	mov    %edi,%ecx
  401b59:	c0 e9 04             	shr    $0x4,%cl
  401b5c:	8d 14 40             	lea    (%rax,%rax,2),%edx
  401b5f:	83 e1 0f             	and    $0xf,%ecx
  401b62:	0f b6 b1 c0 36 40 00 	movzbl 0x4036c0(%rcx),%esi
  401b69:	48 63 ca             	movslq %edx,%rcx
  401b6c:	40 88 b1 20 55 60 00 	mov    %sil,0x605520(%rcx)
  401b73:	8d 4a 01             	lea    0x1(%rdx),%ecx
  401b76:	83 e7 0f             	and    $0xf,%edi
  401b79:	0f b6 b7 c0 36 40 00 	movzbl 0x4036c0(%rdi),%esi
  401b80:	48 63 c9             	movslq %ecx,%rcx
  401b83:	40 88 b1 20 55 60 00 	mov    %sil,0x605520(%rcx)
  401b8a:	83 c2 02             	add    $0x2,%edx
  401b8d:	48 63 d2             	movslq %edx,%rdx
  401b90:	c6 82 20 55 60 00 20 	movb   $0x20,0x605520(%rdx)
  401b97:	83 c0 01             	add    $0x1,%eax
  401b9a:	89 05 84 45 20 00    	mov    %eax,0x204584(%rip)        # 606124 <gets_cnt>
  401ba0:	f3 c3                	repz retq 

0000000000401ba2 <save_term>:
  401ba2:	8b 05 7c 45 20 00    	mov    0x20457c(%rip),%eax        # 606124 <gets_cnt>
  401ba8:	8d 04 40             	lea    (%rax,%rax,2),%eax
  401bab:	48 98                	cltq   
  401bad:	c6 80 20 55 60 00 00 	movb   $0x0,0x605520(%rax)
  401bb4:	c3                   	retq   

0000000000401bb5 <check_fail>:
  401bb5:	48 83 ec 08          	sub    $0x8,%rsp
  401bb9:	0f be 15 68 45 20 00 	movsbl 0x204568(%rip),%edx        # 606128 <target_prefix>
  401bc0:	41 b8 20 55 60 00    	mov    $0x605520,%r8d
  401bc6:	8b 0d 2c 39 20 00    	mov    0x20392c(%rip),%ecx        # 6054f8 <check_level>
  401bcc:	be c3 33 40 00       	mov    $0x4033c3,%esi
  401bd1:	bf 01 00 00 00       	mov    $0x1,%edi
  401bd6:	b8 00 00 00 00       	mov    $0x0,%eax
  401bdb:	e8 00 f2 ff ff       	callq  400de0 <__printf_chk@plt>
  401be0:	bf 01 00 00 00       	mov    $0x1,%edi
  401be5:	e8 46 f2 ff ff       	callq  400e30 <exit@plt>

0000000000401bea <Gets>:
  401bea:	41 54                	push   %r12
  401bec:	55                   	push   %rbp
  401bed:	53                   	push   %rbx
  401bee:	49 89 fc             	mov    %rdi,%r12
  401bf1:	c7 05 29 45 20 00 00 	movl   $0x0,0x204529(%rip)        # 606124 <gets_cnt>
  401bf8:	00 00 00 
  401bfb:	48 89 fb             	mov    %rdi,%rbx
  401bfe:	eb 11                	jmp    401c11 <Gets+0x27>
  401c00:	48 8d 6b 01          	lea    0x1(%rbx),%rbp
  401c04:	88 03                	mov    %al,(%rbx)
  401c06:	0f b6 f8             	movzbl %al,%edi
  401c09:	e8 3c ff ff ff       	callq  401b4a <save_char>
  401c0e:	48 89 eb             	mov    %rbp,%rbx
  401c11:	48 8b 3d d8 38 20 00 	mov    0x2038d8(%rip),%rdi        # 6054f0 <infile>
  401c18:	e8 93 f1 ff ff       	callq  400db0 <_IO_getc@plt>
  401c1d:	83 f8 ff             	cmp    $0xffffffff,%eax
  401c20:	74 05                	je     401c27 <Gets+0x3d>
  401c22:	83 f8 0a             	cmp    $0xa,%eax
  401c25:	75 d9                	jne    401c00 <Gets+0x16>
  401c27:	c6 03 00             	movb   $0x0,(%rbx)
  401c2a:	b8 00 00 00 00       	mov    $0x0,%eax
  401c2f:	e8 6e ff ff ff       	callq  401ba2 <save_term>
  401c34:	4c 89 e0             	mov    %r12,%rax
  401c37:	5b                   	pop    %rbx
  401c38:	5d                   	pop    %rbp
  401c39:	41 5c                	pop    %r12
  401c3b:	c3                   	retq   

0000000000401c3c <notify_server>:
  401c3c:	55                   	push   %rbp
  401c3d:	53                   	push   %rbx
  401c3e:	48 81 ec 18 40 00 00 	sub    $0x4018,%rsp
  401c45:	64 48 8b 04 25 28 00 	mov    %fs:0x28,%rax
  401c4c:	00 00 
  401c4e:	48 89 84 24 08 40 00 	mov    %rax,0x4008(%rsp)
  401c55:	00 
  401c56:	31 c0                	xor    %eax,%eax
  401c58:	83 3d a9 38 20 00 00 	cmpl   $0x0,0x2038a9(%rip)        # 605508 <is_checker>
  401c5f:	0f 85 c9 00 00 00    	jne    401d2e <notify_server+0xf2>
  401c65:	89 fb                	mov    %edi,%ebx
  401c67:	8b 05 b7 44 20 00    	mov    0x2044b7(%rip),%eax        # 606124 <gets_cnt>
  401c6d:	83 c0 64             	add    $0x64,%eax
  401c70:	3d 00 20 00 00       	cmp    $0x2000,%eax
  401c75:	0f 8f d4 00 00 00    	jg     401d4f <notify_server+0x113>
  401c7b:	0f be 05 a6 44 20 00 	movsbl 0x2044a6(%rip),%eax        # 606128 <target_prefix>
  401c82:	83 3d ff 37 20 00 00 	cmpl   $0x0,0x2037ff(%rip)        # 605488 <notify>
  401c89:	0f 84 de 00 00 00    	je     401d6d <notify_server+0x131>
  401c8f:	8b 15 6b 38 20 00    	mov    0x20386b(%rip),%edx        # 605500 <authkey>
  401c95:	85 db                	test   %ebx,%ebx
  401c97:	0f 84 da 00 00 00    	je     401d77 <notify_server+0x13b>
  401c9d:	bd d9 33 40 00       	mov    $0x4033d9,%ebp
  401ca2:	68 20 55 60 00       	pushq  $0x605520
  401ca7:	56                   	push   %rsi
  401ca8:	50                   	push   %rax
  401ca9:	52                   	push   %rdx
  401caa:	49 89 e9             	mov    %rbp,%r9
  401cad:	44 8b 05 94 34 20 00 	mov    0x203494(%rip),%r8d        # 605148 <target_id>
  401cb4:	b9 e3 33 40 00       	mov    $0x4033e3,%ecx
  401cb9:	ba 00 20 00 00       	mov    $0x2000,%edx
  401cbe:	be 01 00 00 00       	mov    $0x1,%esi
  401cc3:	48 8d 7c 24 20       	lea    0x20(%rsp),%rdi
  401cc8:	b8 00 00 00 00       	mov    $0x0,%eax
  401ccd:	e8 8e f1 ff ff       	callq  400e60 <__sprintf_chk@plt>
  401cd2:	48 83 c4 20          	add    $0x20,%rsp
  401cd6:	83 3d ab 37 20 00 00 	cmpl   $0x0,0x2037ab(%rip)        # 605488 <notify>
  401cdd:	0f 84 d3 00 00 00    	je     401db6 <notify_server+0x17a>
  401ce3:	85 db                	test   %ebx,%ebx
  401ce5:	0f 84 bc 00 00 00    	je     401da7 <notify_server+0x16b>
  401ceb:	4c 8d 8c 24 00 20 00 	lea    0x2000(%rsp),%r9
  401cf2:	00 
  401cf3:	41 b8 00 00 00 00    	mov    $0x0,%r8d
  401cf9:	48 89 e1             	mov    %rsp,%rcx
  401cfc:	48 8b 15 4d 34 20 00 	mov    0x20344d(%rip),%rdx        # 605150 <lab>
  401d03:	48 8b 35 4e 34 20 00 	mov    0x20344e(%rip),%rsi        # 605158 <course>
  401d0a:	48 8b 3d 2f 34 20 00 	mov    0x20342f(%rip),%rdi        # 605140 <user_id>
  401d11:	e8 31 11 00 00       	callq  402e47 <driver_post>
  401d16:	85 c0                	test   %eax,%eax
  401d18:	78 67                	js     401d81 <notify_server+0x145>
  401d1a:	bf 28 35 40 00       	mov    $0x403528,%edi
  401d1f:	e8 9c ef ff ff       	callq  400cc0 <puts@plt>
  401d24:	bf 0b 34 40 00       	mov    $0x40340b,%edi
  401d29:	e8 92 ef ff ff       	callq  400cc0 <puts@plt>
  401d2e:	48 8b 84 24 08 40 00 	mov    0x4008(%rsp),%rax
  401d35:	00 
  401d36:	64 48 33 04 25 28 00 	xor    %fs:0x28,%rax
  401d3d:	00 00 
  401d3f:	0f 85 f5 00 00 00    	jne    401e3a <notify_server+0x1fe>
  401d45:	48 81 c4 18 40 00 00 	add    $0x4018,%rsp
  401d4c:	5b                   	pop    %rbx
  401d4d:	5d                   	pop    %rbp
  401d4e:	c3                   	retq   
  401d4f:	be f8 34 40 00       	mov    $0x4034f8,%esi
  401d54:	bf 01 00 00 00       	mov    $0x1,%edi
  401d59:	b8 00 00 00 00       	mov    $0x0,%eax
  401d5e:	e8 7d f0 ff ff       	callq  400de0 <__printf_chk@plt>
  401d63:	bf 01 00 00 00       	mov    $0x1,%edi
  401d68:	e8 c3 f0 ff ff       	callq  400e30 <exit@plt>
  401d6d:	ba ff ff ff ff       	mov    $0xffffffff,%edx
  401d72:	e9 1e ff ff ff       	jmpq   401c95 <notify_server+0x59>
  401d77:	bd de 33 40 00       	mov    $0x4033de,%ebp
  401d7c:	e9 21 ff ff ff       	jmpq   401ca2 <notify_server+0x66>
  401d81:	48 8d 94 24 00 20 00 	lea    0x2000(%rsp),%rdx
  401d88:	00 
  401d89:	be ff 33 40 00       	mov    $0x4033ff,%esi
  401d8e:	bf 01 00 00 00       	mov    $0x1,%edi
  401d93:	b8 00 00 00 00       	mov    $0x0,%eax
  401d98:	e8 43 f0 ff ff       	callq  400de0 <__printf_chk@plt>
  401d9d:	bf 01 00 00 00       	mov    $0x1,%edi
  401da2:	e8 89 f0 ff ff       	callq  400e30 <exit@plt>
  401da7:	bf 15 34 40 00       	mov    $0x403415,%edi
  401dac:	e8 0f ef ff ff       	callq  400cc0 <puts@plt>
  401db1:	e9 78 ff ff ff       	jmpq   401d2e <notify_server+0xf2>
  401db6:	48 89 ea             	mov    %rbp,%rdx
  401db9:	be 60 35 40 00       	mov    $0x403560,%esi
  401dbe:	bf 01 00 00 00       	mov    $0x1,%edi
  401dc3:	b8 00 00 00 00       	mov    $0x0,%eax
  401dc8:	e8 13 f0 ff ff       	callq  400de0 <__printf_chk@plt>
  401dcd:	48 8b 15 6c 33 20 00 	mov    0x20336c(%rip),%rdx        # 605140 <user_id>
  401dd4:	be 1c 34 40 00       	mov    $0x40341c,%esi
  401dd9:	bf 01 00 00 00       	mov    $0x1,%edi
  401dde:	b8 00 00 00 00       	mov    $0x0,%eax
  401de3:	e8 f8 ef ff ff       	callq  400de0 <__printf_chk@plt>
  401de8:	48 8b 15 69 33 20 00 	mov    0x203369(%rip),%rdx        # 605158 <course>
  401def:	be 29 34 40 00       	mov    $0x403429,%esi
  401df4:	bf 01 00 00 00       	mov    $0x1,%edi
  401df9:	b8 00 00 00 00       	mov    $0x0,%eax
  401dfe:	e8 dd ef ff ff       	callq  400de0 <__printf_chk@plt>
  401e03:	48 8b 15 46 33 20 00 	mov    0x203346(%rip),%rdx        # 605150 <lab>
  401e0a:	be 35 34 40 00       	mov    $0x403435,%esi
  401e0f:	bf 01 00 00 00       	mov    $0x1,%edi
  401e14:	b8 00 00 00 00       	mov    $0x0,%eax
  401e19:	e8 c2 ef ff ff       	callq  400de0 <__printf_chk@plt>
  401e1e:	48 89 e2             	mov    %rsp,%rdx
  401e21:	be 3e 34 40 00       	mov    $0x40343e,%esi
  401e26:	bf 01 00 00 00       	mov    $0x1,%edi
  401e2b:	b8 00 00 00 00       	mov    $0x0,%eax
  401e30:	e8 ab ef ff ff       	callq  400de0 <__printf_chk@plt>
  401e35:	e9 f4 fe ff ff       	jmpq   401d2e <notify_server+0xf2>
  401e3a:	e8 a1 ee ff ff       	callq  400ce0 <__stack_chk_fail@plt>

0000000000401e3f <validate>:
  401e3f:	53                   	push   %rbx
  401e40:	89 fb                	mov    %edi,%ebx
  401e42:	83 3d bf 36 20 00 00 	cmpl   $0x0,0x2036bf(%rip)        # 605508 <is_checker>
  401e49:	74 6b                	je     401eb6 <validate+0x77>
  401e4b:	39 3d ab 36 20 00    	cmp    %edi,0x2036ab(%rip)        # 6054fc <vlevel>
  401e51:	75 2f                	jne    401e82 <validate+0x43>
  401e53:	8b 15 9f 36 20 00    	mov    0x20369f(%rip),%edx        # 6054f8 <check_level>
  401e59:	39 fa                	cmp    %edi,%edx
  401e5b:	75 39                	jne    401e96 <validate+0x57>
  401e5d:	0f be 15 c4 42 20 00 	movsbl 0x2042c4(%rip),%edx        # 606128 <target_prefix>
  401e64:	41 b8 20 55 60 00    	mov    $0x605520,%r8d
  401e6a:	89 f9                	mov    %edi,%ecx
  401e6c:	be 68 34 40 00       	mov    $0x403468,%esi
  401e71:	bf 01 00 00 00       	mov    $0x1,%edi
  401e76:	b8 00 00 00 00       	mov    $0x0,%eax
  401e7b:	e8 60 ef ff ff       	callq  400de0 <__printf_chk@plt>
  401e80:	5b                   	pop    %rbx
  401e81:	c3                   	retq   
  401e82:	bf 4a 34 40 00       	mov    $0x40344a,%edi
  401e87:	e8 34 ee ff ff       	callq  400cc0 <puts@plt>
  401e8c:	b8 00 00 00 00       	mov    $0x0,%eax
  401e91:	e8 1f fd ff ff       	callq  401bb5 <check_fail>
  401e96:	89 f9                	mov    %edi,%ecx
  401e98:	be 88 35 40 00       	mov    $0x403588,%esi
  401e9d:	bf 01 00 00 00       	mov    $0x1,%edi
  401ea2:	b8 00 00 00 00       	mov    $0x0,%eax
  401ea7:	e8 34 ef ff ff       	callq  400de0 <__printf_chk@plt>
  401eac:	b8 00 00 00 00       	mov    $0x0,%eax
  401eb1:	e8 ff fc ff ff       	callq  401bb5 <check_fail>
  401eb6:	39 3d 40 36 20 00    	cmp    %edi,0x203640(%rip)        # 6054fc <vlevel>
  401ebc:	74 18                	je     401ed6 <validate+0x97>
  401ebe:	bf 4a 34 40 00       	mov    $0x40344a,%edi
  401ec3:	e8 f8 ed ff ff       	callq  400cc0 <puts@plt>
  401ec8:	89 de                	mov    %ebx,%esi
  401eca:	bf 00 00 00 00       	mov    $0x0,%edi
  401ecf:	e8 68 fd ff ff       	callq  401c3c <notify_server>
  401ed4:	eb aa                	jmp    401e80 <validate+0x41>
  401ed6:	0f be 0d 4b 42 20 00 	movsbl 0x20424b(%rip),%ecx        # 606128 <target_prefix>
  401edd:	89 fa                	mov    %edi,%edx
  401edf:	be b0 35 40 00       	mov    $0x4035b0,%esi
  401ee4:	bf 01 00 00 00       	mov    $0x1,%edi
  401ee9:	b8 00 00 00 00       	mov    $0x0,%eax
  401eee:	e8 ed ee ff ff       	callq  400de0 <__printf_chk@plt>
  401ef3:	89 de                	mov    %ebx,%esi
  401ef5:	bf 01 00 00 00       	mov    $0x1,%edi
  401efa:	e8 3d fd ff ff       	callq  401c3c <notify_server>
  401eff:	e9 7c ff ff ff       	jmpq   401e80 <validate+0x41>

0000000000401f04 <fail>:
  401f04:	48 83 ec 08          	sub    $0x8,%rsp
  401f08:	83 3d f9 35 20 00 00 	cmpl   $0x0,0x2035f9(%rip)        # 605508 <is_checker>
  401f0f:	75 11                	jne    401f22 <fail+0x1e>
  401f11:	89 fe                	mov    %edi,%esi
  401f13:	bf 00 00 00 00       	mov    $0x0,%edi
  401f18:	e8 1f fd ff ff       	callq  401c3c <notify_server>
  401f1d:	48 83 c4 08          	add    $0x8,%rsp
  401f21:	c3                   	retq   
  401f22:	b8 00 00 00 00       	mov    $0x0,%eax
  401f27:	e8 89 fc ff ff       	callq  401bb5 <check_fail>

0000000000401f2c <bushandler>:
  401f2c:	48 83 ec 08          	sub    $0x8,%rsp
  401f30:	83 3d d1 35 20 00 00 	cmpl   $0x0,0x2035d1(%rip)        # 605508 <is_checker>
  401f37:	74 14                	je     401f4d <bushandler+0x21>
  401f39:	bf 7d 34 40 00       	mov    $0x40347d,%edi
  401f3e:	e8 7d ed ff ff       	callq  400cc0 <puts@plt>
  401f43:	b8 00 00 00 00       	mov    $0x0,%eax
  401f48:	e8 68 fc ff ff       	callq  401bb5 <check_fail>
  401f4d:	bf e8 35 40 00       	mov    $0x4035e8,%edi
  401f52:	e8 69 ed ff ff       	callq  400cc0 <puts@plt>
  401f57:	bf 87 34 40 00       	mov    $0x403487,%edi
  401f5c:	e8 5f ed ff ff       	callq  400cc0 <puts@plt>
  401f61:	be 00 00 00 00       	mov    $0x0,%esi
  401f66:	bf 00 00 00 00       	mov    $0x0,%edi
  401f6b:	e8 cc fc ff ff       	callq  401c3c <notify_server>
  401f70:	bf 01 00 00 00       	mov    $0x1,%edi
  401f75:	e8 b6 ee ff ff       	callq  400e30 <exit@plt>

0000000000401f7a <seghandler>:
  401f7a:	48 83 ec 08          	sub    $0x8,%rsp
  401f7e:	83 3d 83 35 20 00 00 	cmpl   $0x0,0x203583(%rip)        # 605508 <is_checker>
  401f85:	74 14                	je     401f9b <seghandler+0x21>
  401f87:	bf 9d 34 40 00       	mov    $0x40349d,%edi
  401f8c:	e8 2f ed ff ff       	callq  400cc0 <puts@plt>
  401f91:	b8 00 00 00 00       	mov    $0x0,%eax
  401f96:	e8 1a fc ff ff       	callq  401bb5 <check_fail>
  401f9b:	bf 08 36 40 00       	mov    $0x403608,%edi
  401fa0:	e8 1b ed ff ff       	callq  400cc0 <puts@plt>
  401fa5:	bf 87 34 40 00       	mov    $0x403487,%edi
  401faa:	e8 11 ed ff ff       	callq  400cc0 <puts@plt>
  401faf:	be 00 00 00 00       	mov    $0x0,%esi
  401fb4:	bf 00 00 00 00       	mov    $0x0,%edi
  401fb9:	e8 7e fc ff ff       	callq  401c3c <notify_server>
  401fbe:	bf 01 00 00 00       	mov    $0x1,%edi
  401fc3:	e8 68 ee ff ff       	callq  400e30 <exit@plt>

0000000000401fc8 <illegalhandler>:
  401fc8:	48 83 ec 08          	sub    $0x8,%rsp
  401fcc:	83 3d 35 35 20 00 00 	cmpl   $0x0,0x203535(%rip)        # 605508 <is_checker>
  401fd3:	74 14                	je     401fe9 <illegalhandler+0x21>
  401fd5:	bf b0 34 40 00       	mov    $0x4034b0,%edi
  401fda:	e8 e1 ec ff ff       	callq  400cc0 <puts@plt>
  401fdf:	b8 00 00 00 00       	mov    $0x0,%eax
  401fe4:	e8 cc fb ff ff       	callq  401bb5 <check_fail>
  401fe9:	bf 30 36 40 00       	mov    $0x403630,%edi
  401fee:	e8 cd ec ff ff       	callq  400cc0 <puts@plt>
  401ff3:	bf 87 34 40 00       	mov    $0x403487,%edi
  401ff8:	e8 c3 ec ff ff       	callq  400cc0 <puts@plt>
  401ffd:	be 00 00 00 00       	mov    $0x0,%esi
  402002:	bf 00 00 00 00       	mov    $0x0,%edi
  402007:	e8 30 fc ff ff       	callq  401c3c <notify_server>
  40200c:	bf 01 00 00 00       	mov    $0x1,%edi
  402011:	e8 1a ee ff ff       	callq  400e30 <exit@plt>

0000000000402016 <sigalrmhandler>:
  402016:	48 83 ec 08          	sub    $0x8,%rsp
  40201a:	83 3d e7 34 20 00 00 	cmpl   $0x0,0x2034e7(%rip)        # 605508 <is_checker>
  402021:	74 14                	je     402037 <sigalrmhandler+0x21>
  402023:	bf c4 34 40 00       	mov    $0x4034c4,%edi
  402028:	e8 93 ec ff ff       	callq  400cc0 <puts@plt>
  40202d:	b8 00 00 00 00       	mov    $0x0,%eax
  402032:	e8 7e fb ff ff       	callq  401bb5 <check_fail>
  402037:	ba 05 00 00 00       	mov    $0x5,%edx
  40203c:	be 60 36 40 00       	mov    $0x403660,%esi
  402041:	bf 01 00 00 00       	mov    $0x1,%edi
  402046:	b8 00 00 00 00       	mov    $0x0,%eax
  40204b:	e8 90 ed ff ff       	callq  400de0 <__printf_chk@plt>
  402050:	be 00 00 00 00       	mov    $0x0,%esi
  402055:	bf 00 00 00 00       	mov    $0x0,%edi
  40205a:	e8 dd fb ff ff       	callq  401c3c <notify_server>
  40205f:	bf 01 00 00 00       	mov    $0x1,%edi
  402064:	e8 c7 ed ff ff       	callq  400e30 <exit@plt>

0000000000402069 <launch>:
  402069:	55                   	push   %rbp
  40206a:	48 89 e5             	mov    %rsp,%rbp
  40206d:	48 83 ec 10          	sub    $0x10,%rsp
  402071:	48 89 fa             	mov    %rdi,%rdx
  402074:	64 48 8b 04 25 28 00 	mov    %fs:0x28,%rax
  40207b:	00 00 
  40207d:	48 89 45 f8          	mov    %rax,-0x8(%rbp)
  402081:	31 c0                	xor    %eax,%eax
  402083:	48 8d 47 1e          	lea    0x1e(%rdi),%rax
  402087:	48 83 e0 f0          	and    $0xfffffffffffffff0,%rax
  40208b:	48 29 c4             	sub    %rax,%rsp
  40208e:	48 8d 7c 24 0f       	lea    0xf(%rsp),%rdi
  402093:	48 83 e7 f0          	and    $0xfffffffffffffff0,%rdi
  402097:	be f4 00 00 00       	mov    $0xf4,%esi
  40209c:	e8 5f ec ff ff       	callq  400d00 <memset@plt>
  4020a1:	48 8b 05 f8 33 20 00 	mov    0x2033f8(%rip),%rax        # 6054a0 <stdin@@GLIBC_2.2.5>
  4020a8:	48 39 05 41 34 20 00 	cmp    %rax,0x203441(%rip)        # 6054f0 <infile>
  4020af:	74 38                	je     4020e9 <launch+0x80>
  4020b1:	c7 05 41 34 20 00 00 	movl   $0x0,0x203441(%rip)        # 6054fc <vlevel>
  4020b8:	00 00 00 
  4020bb:	b8 00 00 00 00       	mov    $0x0,%eax
  4020c0:	e8 3b f9 ff ff       	callq  401a00 <test>
  4020c5:	83 3d 3c 34 20 00 00 	cmpl   $0x0,0x20343c(%rip)        # 605508 <is_checker>
  4020cc:	75 31                	jne    4020ff <launch+0x96>
  4020ce:	bf e4 34 40 00       	mov    $0x4034e4,%edi
  4020d3:	e8 e8 eb ff ff       	callq  400cc0 <puts@plt>
  4020d8:	48 8b 45 f8          	mov    -0x8(%rbp),%rax
  4020dc:	64 48 33 04 25 28 00 	xor    %fs:0x28,%rax
  4020e3:	00 00 
  4020e5:	75 2c                	jne    402113 <launch+0xaa>
  4020e7:	c9                   	leaveq 
  4020e8:	c3                   	retq   
  4020e9:	be cc 34 40 00       	mov    $0x4034cc,%esi
  4020ee:	bf 01 00 00 00       	mov    $0x1,%edi
  4020f3:	b8 00 00 00 00       	mov    $0x0,%eax
  4020f8:	e8 e3 ec ff ff       	callq  400de0 <__printf_chk@plt>
  4020fd:	eb b2                	jmp    4020b1 <launch+0x48>
  4020ff:	bf d9 34 40 00       	mov    $0x4034d9,%edi
  402104:	e8 b7 eb ff ff       	callq  400cc0 <puts@plt>
  402109:	b8 00 00 00 00       	mov    $0x0,%eax
  40210e:	e8 a2 fa ff ff       	callq  401bb5 <check_fail>
  402113:	e8 c8 eb ff ff       	callq  400ce0 <__stack_chk_fail@plt>

0000000000402118 <stable_launch>:
  402118:	53                   	push   %rbx
  402119:	48 89 3d c8 33 20 00 	mov    %rdi,0x2033c8(%rip)        # 6054e8 <global_offset>
  402120:	41 b9 00 00 00 00    	mov    $0x0,%r9d
  402126:	41 b8 00 00 00 00    	mov    $0x0,%r8d
  40212c:	b9 32 01 00 00       	mov    $0x132,%ecx
  402131:	ba 07 00 00 00       	mov    $0x7,%edx
  402136:	be 00 00 10 00       	mov    $0x100000,%esi
  40213b:	bf 00 60 58 55       	mov    $0x55586000,%edi
  402140:	e8 ab eb ff ff       	callq  400cf0 <mmap@plt>
  402145:	48 89 c3             	mov    %rax,%rbx
  402148:	48 3d 00 60 58 55    	cmp    $0x55586000,%rax
  40214e:	75 43                	jne    402193 <stable_launch+0x7b>
  402150:	48 8d 90 f8 ff 0f 00 	lea    0xffff8(%rax),%rdx
  402157:	48 89 15 d2 3f 20 00 	mov    %rdx,0x203fd2(%rip)        # 606130 <stack_top>
  40215e:	48 89 e0             	mov    %rsp,%rax
  402161:	48 89 d4             	mov    %rdx,%rsp
  402164:	48 89 c2             	mov    %rax,%rdx
  402167:	48 89 15 72 33 20 00 	mov    %rdx,0x203372(%rip)        # 6054e0 <global_save_stack>
  40216e:	48 8b 3d 73 33 20 00 	mov    0x203373(%rip),%rdi        # 6054e8 <global_offset>
  402175:	e8 ef fe ff ff       	callq  402069 <launch>
  40217a:	48 8b 05 5f 33 20 00 	mov    0x20335f(%rip),%rax        # 6054e0 <global_save_stack>
  402181:	48 89 c4             	mov    %rax,%rsp
  402184:	be 00 00 10 00       	mov    $0x100000,%esi
  402189:	48 89 df             	mov    %rbx,%rdi
  40218c:	e8 3f ec ff ff       	callq  400dd0 <munmap@plt>
  402191:	5b                   	pop    %rbx
  402192:	c3                   	retq   
  402193:	be 00 00 10 00       	mov    $0x100000,%esi
  402198:	48 89 c7             	mov    %rax,%rdi
  40219b:	e8 30 ec ff ff       	callq  400dd0 <munmap@plt>
  4021a0:	b9 00 60 58 55       	mov    $0x55586000,%ecx
  4021a5:	ba 98 36 40 00       	mov    $0x403698,%edx
  4021aa:	be 01 00 00 00       	mov    $0x1,%esi
  4021af:	48 8b 3d 0a 33 20 00 	mov    0x20330a(%rip),%rdi        # 6054c0 <stderr@@GLIBC_2.2.5>
  4021b6:	b8 00 00 00 00       	mov    $0x0,%eax
  4021bb:	e8 90 ec ff ff       	callq  400e50 <__fprintf_chk@plt>
  4021c0:	bf 01 00 00 00       	mov    $0x1,%edi
  4021c5:	e8 66 ec ff ff       	callq  400e30 <exit@plt>

00000000004021ca <rio_readinitb>:
  4021ca:	89 37                	mov    %esi,(%rdi)
  4021cc:	c7 47 04 00 00 00 00 	movl   $0x0,0x4(%rdi)
  4021d3:	48 8d 47 10          	lea    0x10(%rdi),%rax
  4021d7:	48 89 47 08          	mov    %rax,0x8(%rdi)
  4021db:	c3                   	retq   

00000000004021dc <sigalrm_handler>:
  4021dc:	48 83 ec 08          	sub    $0x8,%rsp
  4021e0:	b9 00 00 00 00       	mov    $0x0,%ecx
  4021e5:	ba d0 36 40 00       	mov    $0x4036d0,%edx
  4021ea:	be 01 00 00 00       	mov    $0x1,%esi
  4021ef:	48 8b 3d ca 32 20 00 	mov    0x2032ca(%rip),%rdi        # 6054c0 <stderr@@GLIBC_2.2.5>
  4021f6:	b8 00 00 00 00       	mov    $0x0,%eax
  4021fb:	e8 50 ec ff ff       	callq  400e50 <__fprintf_chk@plt>
  402200:	bf 01 00 00 00       	mov    $0x1,%edi
  402205:	e8 26 ec ff ff       	callq  400e30 <exit@plt>

000000000040220a <rio_writen>:
  40220a:	41 55                	push   %r13
  40220c:	41 54                	push   %r12
  40220e:	55                   	push   %rbp
  40220f:	53                   	push   %rbx
  402210:	48 83 ec 08          	sub    $0x8,%rsp
  402214:	41 89 fc             	mov    %edi,%r12d
  402217:	48 89 f5             	mov    %rsi,%rbp
  40221a:	49 89 d5             	mov    %rdx,%r13
  40221d:	48 89 d3             	mov    %rdx,%rbx
  402220:	eb 06                	jmp    402228 <rio_writen+0x1e>
  402222:	48 29 c3             	sub    %rax,%rbx
  402225:	48 01 c5             	add    %rax,%rbp
  402228:	48 85 db             	test   %rbx,%rbx
  40222b:	74 24                	je     402251 <rio_writen+0x47>
  40222d:	48 89 da             	mov    %rbx,%rdx
  402230:	48 89 ee             	mov    %rbp,%rsi
  402233:	44 89 e7             	mov    %r12d,%edi
  402236:	e8 95 ea ff ff       	callq  400cd0 <write@plt>
  40223b:	48 85 c0             	test   %rax,%rax
  40223e:	7f e2                	jg     402222 <rio_writen+0x18>
  402240:	e8 3b ea ff ff       	callq  400c80 <__errno_location@plt>
  402245:	83 38 04             	cmpl   $0x4,(%rax)
  402248:	75 15                	jne    40225f <rio_writen+0x55>
  40224a:	b8 00 00 00 00       	mov    $0x0,%eax
  40224f:	eb d1                	jmp    402222 <rio_writen+0x18>
  402251:	4c 89 e8             	mov    %r13,%rax
  402254:	48 83 c4 08          	add    $0x8,%rsp
  402258:	5b                   	pop    %rbx
  402259:	5d                   	pop    %rbp
  40225a:	41 5c                	pop    %r12
  40225c:	41 5d                	pop    %r13
  40225e:	c3                   	retq   
  40225f:	48 c7 c0 ff ff ff ff 	mov    $0xffffffffffffffff,%rax
  402266:	eb ec                	jmp    402254 <rio_writen+0x4a>

0000000000402268 <rio_read>:
  402268:	41 55                	push   %r13
  40226a:	41 54                	push   %r12
  40226c:	55                   	push   %rbp
  40226d:	53                   	push   %rbx
  40226e:	48 83 ec 08          	sub    $0x8,%rsp
  402272:	48 89 fb             	mov    %rdi,%rbx
  402275:	49 89 f5             	mov    %rsi,%r13
  402278:	49 89 d4             	mov    %rdx,%r12
  40227b:	eb 0a                	jmp    402287 <rio_read+0x1f>
  40227d:	e8 fe e9 ff ff       	callq  400c80 <__errno_location@plt>
  402282:	83 38 04             	cmpl   $0x4,(%rax)
  402285:	75 5c                	jne    4022e3 <rio_read+0x7b>
  402287:	8b 6b 04             	mov    0x4(%rbx),%ebp
  40228a:	85 ed                	test   %ebp,%ebp
  40228c:	7f 24                	jg     4022b2 <rio_read+0x4a>
  40228e:	48 8d 6b 10          	lea    0x10(%rbx),%rbp
  402292:	8b 3b                	mov    (%rbx),%edi
  402294:	ba 00 20 00 00       	mov    $0x2000,%edx
  402299:	48 89 ee             	mov    %rbp,%rsi
  40229c:	e8 8f ea ff ff       	callq  400d30 <read@plt>
  4022a1:	89 43 04             	mov    %eax,0x4(%rbx)
  4022a4:	85 c0                	test   %eax,%eax
  4022a6:	78 d5                	js     40227d <rio_read+0x15>
  4022a8:	85 c0                	test   %eax,%eax
  4022aa:	74 40                	je     4022ec <rio_read+0x84>
  4022ac:	48 89 6b 08          	mov    %rbp,0x8(%rbx)
  4022b0:	eb d5                	jmp    402287 <rio_read+0x1f>
  4022b2:	89 e8                	mov    %ebp,%eax
  4022b4:	4c 39 e0             	cmp    %r12,%rax
  4022b7:	72 03                	jb     4022bc <rio_read+0x54>
  4022b9:	44 89 e5             	mov    %r12d,%ebp
  4022bc:	4c 63 e5             	movslq %ebp,%r12
  4022bf:	48 8b 73 08          	mov    0x8(%rbx),%rsi
  4022c3:	4c 89 e2             	mov    %r12,%rdx
  4022c6:	4c 89 ef             	mov    %r13,%rdi
  4022c9:	e8 b2 ea ff ff       	callq  400d80 <memcpy@plt>
  4022ce:	4c 01 63 08          	add    %r12,0x8(%rbx)
  4022d2:	29 6b 04             	sub    %ebp,0x4(%rbx)
  4022d5:	4c 89 e0             	mov    %r12,%rax
  4022d8:	48 83 c4 08          	add    $0x8,%rsp
  4022dc:	5b                   	pop    %rbx
  4022dd:	5d                   	pop    %rbp
  4022de:	41 5c                	pop    %r12
  4022e0:	41 5d                	pop    %r13
  4022e2:	c3                   	retq   
  4022e3:	48 c7 c0 ff ff ff ff 	mov    $0xffffffffffffffff,%rax
  4022ea:	eb ec                	jmp    4022d8 <rio_read+0x70>
  4022ec:	b8 00 00 00 00       	mov    $0x0,%eax
  4022f1:	eb e5                	jmp    4022d8 <rio_read+0x70>

00000000004022f3 <rio_readlineb>:
  4022f3:	41 55                	push   %r13
  4022f5:	41 54                	push   %r12
  4022f7:	55                   	push   %rbp
  4022f8:	53                   	push   %rbx
  4022f9:	48 83 ec 18          	sub    $0x18,%rsp
  4022fd:	49 89 fd             	mov    %rdi,%r13
  402300:	48 89 f5             	mov    %rsi,%rbp
  402303:	49 89 d4             	mov    %rdx,%r12
  402306:	64 48 8b 04 25 28 00 	mov    %fs:0x28,%rax
  40230d:	00 00 
  40230f:	48 89 44 24 08       	mov    %rax,0x8(%rsp)
  402314:	31 c0                	xor    %eax,%eax
  402316:	bb 01 00 00 00       	mov    $0x1,%ebx
  40231b:	4c 39 e3             	cmp    %r12,%rbx
  40231e:	73 47                	jae    402367 <rio_readlineb+0x74>
  402320:	ba 01 00 00 00       	mov    $0x1,%edx
  402325:	48 8d 74 24 07       	lea    0x7(%rsp),%rsi
  40232a:	4c 89 ef             	mov    %r13,%rdi
  40232d:	e8 36 ff ff ff       	callq  402268 <rio_read>
  402332:	83 f8 01             	cmp    $0x1,%eax
  402335:	75 1c                	jne    402353 <rio_readlineb+0x60>
  402337:	48 8d 45 01          	lea    0x1(%rbp),%rax
  40233b:	0f b6 54 24 07       	movzbl 0x7(%rsp),%edx
  402340:	88 55 00             	mov    %dl,0x0(%rbp)
  402343:	80 7c 24 07 0a       	cmpb   $0xa,0x7(%rsp)
  402348:	74 1a                	je     402364 <rio_readlineb+0x71>
  40234a:	48 83 c3 01          	add    $0x1,%rbx
  40234e:	48 89 c5             	mov    %rax,%rbp
  402351:	eb c8                	jmp    40231b <rio_readlineb+0x28>
  402353:	85 c0                	test   %eax,%eax
  402355:	75 32                	jne    402389 <rio_readlineb+0x96>
  402357:	48 83 fb 01          	cmp    $0x1,%rbx
  40235b:	75 0a                	jne    402367 <rio_readlineb+0x74>
  40235d:	b8 00 00 00 00       	mov    $0x0,%eax
  402362:	eb 0a                	jmp    40236e <rio_readlineb+0x7b>
  402364:	48 89 c5             	mov    %rax,%rbp
  402367:	c6 45 00 00          	movb   $0x0,0x0(%rbp)
  40236b:	48 89 d8             	mov    %rbx,%rax
  40236e:	48 8b 4c 24 08       	mov    0x8(%rsp),%rcx
  402373:	64 48 33 0c 25 28 00 	xor    %fs:0x28,%rcx
  40237a:	00 00 
  40237c:	75 14                	jne    402392 <rio_readlineb+0x9f>
  40237e:	48 83 c4 18          	add    $0x18,%rsp
  402382:	5b                   	pop    %rbx
  402383:	5d                   	pop    %rbp
  402384:	41 5c                	pop    %r12
  402386:	41 5d                	pop    %r13
  402388:	c3                   	retq   
  402389:	48 c7 c0 ff ff ff ff 	mov    $0xffffffffffffffff,%rax
  402390:	eb dc                	jmp    40236e <rio_readlineb+0x7b>
  402392:	e8 49 e9 ff ff       	callq  400ce0 <__stack_chk_fail@plt>

0000000000402397 <urlencode>:
  402397:	41 54                	push   %r12
  402399:	55                   	push   %rbp
  40239a:	53                   	push   %rbx
  40239b:	48 83 ec 10          	sub    $0x10,%rsp
  40239f:	48 89 fb             	mov    %rdi,%rbx
  4023a2:	48 89 f5             	mov    %rsi,%rbp
  4023a5:	64 48 8b 04 25 28 00 	mov    %fs:0x28,%rax
  4023ac:	00 00 
  4023ae:	48 89 44 24 08       	mov    %rax,0x8(%rsp)
  4023b3:	31 c0                	xor    %eax,%eax
  4023b5:	48 c7 c1 ff ff ff ff 	mov    $0xffffffffffffffff,%rcx
  4023bc:	f2 ae                	repnz scas %es:(%rdi),%al
  4023be:	48 89 ce             	mov    %rcx,%rsi
  4023c1:	48 f7 d6             	not    %rsi
  4023c4:	8d 46 ff             	lea    -0x1(%rsi),%eax
  4023c7:	eb 0f                	jmp    4023d8 <urlencode+0x41>
  4023c9:	44 88 45 00          	mov    %r8b,0x0(%rbp)
  4023cd:	48 8d 6d 01          	lea    0x1(%rbp),%rbp
  4023d1:	48 83 c3 01          	add    $0x1,%rbx
  4023d5:	44 89 e0             	mov    %r12d,%eax
  4023d8:	44 8d 60 ff          	lea    -0x1(%rax),%r12d
  4023dc:	85 c0                	test   %eax,%eax
  4023de:	0f 84 a6 00 00 00    	je     40248a <urlencode+0xf3>
  4023e4:	44 0f b6 03          	movzbl (%rbx),%r8d
  4023e8:	41 80 f8 2a          	cmp    $0x2a,%r8b
  4023ec:	0f 94 c2             	sete   %dl
  4023ef:	41 80 f8 2d          	cmp    $0x2d,%r8b
  4023f3:	0f 94 c0             	sete   %al
  4023f6:	08 c2                	or     %al,%dl
  4023f8:	75 cf                	jne    4023c9 <urlencode+0x32>
  4023fa:	41 80 f8 2e          	cmp    $0x2e,%r8b
  4023fe:	74 c9                	je     4023c9 <urlencode+0x32>
  402400:	41 80 f8 5f          	cmp    $0x5f,%r8b
  402404:	74 c3                	je     4023c9 <urlencode+0x32>
  402406:	41 8d 40 d0          	lea    -0x30(%r8),%eax
  40240a:	3c 09                	cmp    $0x9,%al
  40240c:	76 bb                	jbe    4023c9 <urlencode+0x32>
  40240e:	41 8d 40 bf          	lea    -0x41(%r8),%eax
  402412:	3c 19                	cmp    $0x19,%al
  402414:	76 b3                	jbe    4023c9 <urlencode+0x32>
  402416:	41 8d 40 9f          	lea    -0x61(%r8),%eax
  40241a:	3c 19                	cmp    $0x19,%al
  40241c:	76 ab                	jbe    4023c9 <urlencode+0x32>
  40241e:	41 80 f8 20          	cmp    $0x20,%r8b
  402422:	74 54                	je     402478 <urlencode+0xe1>
  402424:	41 8d 40 e0          	lea    -0x20(%r8),%eax
  402428:	3c 5f                	cmp    $0x5f,%al
  40242a:	0f 96 c2             	setbe  %dl
  40242d:	41 80 f8 09          	cmp    $0x9,%r8b
  402431:	0f 94 c0             	sete   %al
  402434:	08 c2                	or     %al,%dl
  402436:	74 4d                	je     402485 <urlencode+0xee>
  402438:	45 0f b6 c0          	movzbl %r8b,%r8d
  40243c:	b9 68 37 40 00       	mov    $0x403768,%ecx
  402441:	ba 08 00 00 00       	mov    $0x8,%edx
  402446:	be 01 00 00 00       	mov    $0x1,%esi
  40244b:	48 89 e7             	mov    %rsp,%rdi
  40244e:	b8 00 00 00 00       	mov    $0x0,%eax
  402453:	e8 08 ea ff ff       	callq  400e60 <__sprintf_chk@plt>
  402458:	0f b6 04 24          	movzbl (%rsp),%eax
  40245c:	88 45 00             	mov    %al,0x0(%rbp)
  40245f:	0f b6 44 24 01       	movzbl 0x1(%rsp),%eax
  402464:	88 45 01             	mov    %al,0x1(%rbp)
  402467:	0f b6 44 24 02       	movzbl 0x2(%rsp),%eax
  40246c:	88 45 02             	mov    %al,0x2(%rbp)
  40246f:	48 8d 6d 03          	lea    0x3(%rbp),%rbp
  402473:	e9 59 ff ff ff       	jmpq   4023d1 <urlencode+0x3a>
  402478:	c6 45 00 2b          	movb   $0x2b,0x0(%rbp)
  40247c:	48 8d 6d 01          	lea    0x1(%rbp),%rbp
  402480:	e9 4c ff ff ff       	jmpq   4023d1 <urlencode+0x3a>
  402485:	b8 ff ff ff ff       	mov    $0xffffffff,%eax
  40248a:	48 8b 74 24 08       	mov    0x8(%rsp),%rsi
  40248f:	64 48 33 34 25 28 00 	xor    %fs:0x28,%rsi
  402496:	00 00 
  402498:	75 09                	jne    4024a3 <urlencode+0x10c>
  40249a:	48 83 c4 10          	add    $0x10,%rsp
  40249e:	5b                   	pop    %rbx
  40249f:	5d                   	pop    %rbp
  4024a0:	41 5c                	pop    %r12
  4024a2:	c3                   	retq   
  4024a3:	e8 38 e8 ff ff       	callq  400ce0 <__stack_chk_fail@plt>

00000000004024a8 <submitr>:
  4024a8:	41 57                	push   %r15
  4024aa:	41 56                	push   %r14
  4024ac:	41 55                	push   %r13
  4024ae:	41 54                	push   %r12
  4024b0:	55                   	push   %rbp
  4024b1:	53                   	push   %rbx
  4024b2:	48 81 ec 58 a0 00 00 	sub    $0xa058,%rsp
  4024b9:	49 89 fc             	mov    %rdi,%r12
  4024bc:	89 74 24 04          	mov    %esi,0x4(%rsp)
  4024c0:	49 89 d7             	mov    %rdx,%r15
  4024c3:	49 89 ce             	mov    %rcx,%r14
  4024c6:	4c 89 44 24 08       	mov    %r8,0x8(%rsp)
  4024cb:	4d 89 cd             	mov    %r9,%r13
  4024ce:	48 8b ac 24 90 a0 00 	mov    0xa090(%rsp),%rbp
  4024d5:	00 
  4024d6:	64 48 8b 04 25 28 00 	mov    %fs:0x28,%rax
  4024dd:	00 00 
  4024df:	48 89 84 24 48 a0 00 	mov    %rax,0xa048(%rsp)
  4024e6:	00 
  4024e7:	31 c0                	xor    %eax,%eax
  4024e9:	c7 44 24 1c 00 00 00 	movl   $0x0,0x1c(%rsp)
  4024f0:	00 
  4024f1:	ba 00 00 00 00       	mov    $0x0,%edx
  4024f6:	be 01 00 00 00       	mov    $0x1,%esi
  4024fb:	bf 02 00 00 00       	mov    $0x2,%edi
  402500:	e8 6b e9 ff ff       	callq  400e70 <socket@plt>
  402505:	85 c0                	test   %eax,%eax
  402507:	0f 88 9b 02 00 00    	js     4027a8 <submitr+0x300>
  40250d:	89 c3                	mov    %eax,%ebx
  40250f:	4c 89 e7             	mov    %r12,%rdi
  402512:	e8 39 e8 ff ff       	callq  400d50 <gethostbyname@plt>
  402517:	48 85 c0             	test   %rax,%rax
  40251a:	0f 84 d4 02 00 00    	je     4027f4 <submitr+0x34c>
  402520:	48 c7 44 24 22 00 00 	movq   $0x0,0x22(%rsp)
  402527:	00 00 
  402529:	c7 44 24 2a 00 00 00 	movl   $0x0,0x2a(%rsp)
  402530:	00 
  402531:	66 c7 44 24 2e 00 00 	movw   $0x0,0x2e(%rsp)
  402538:	66 c7 44 24 20 02 00 	movw   $0x2,0x20(%rsp)
  40253f:	48 63 50 14          	movslq 0x14(%rax),%rdx
  402543:	48 8b 40 18          	mov    0x18(%rax),%rax
  402547:	48 8b 30             	mov    (%rax),%rsi
  40254a:	48 8d 7c 24 24       	lea    0x24(%rsp),%rdi
  40254f:	b9 0c 00 00 00       	mov    $0xc,%ecx
  402554:	e8 07 e8 ff ff       	callq  400d60 <__memmove_chk@plt>
  402559:	0f b7 44 24 04       	movzwl 0x4(%rsp),%eax
  40255e:	66 c1 c8 08          	ror    $0x8,%ax
  402562:	66 89 44 24 22       	mov    %ax,0x22(%rsp)
  402567:	ba 10 00 00 00       	mov    $0x10,%edx
  40256c:	48 8d 74 24 20       	lea    0x20(%rsp),%rsi
  402571:	89 df                	mov    %ebx,%edi
  402573:	e8 c8 e8 ff ff       	callq  400e40 <connect@plt>
  402578:	85 c0                	test   %eax,%eax
  40257a:	0f 88 dc 02 00 00    	js     40285c <submitr+0x3b4>
  402580:	48 c7 c6 ff ff ff ff 	mov    $0xffffffffffffffff,%rsi
  402587:	b8 00 00 00 00       	mov    $0x0,%eax
  40258c:	48 89 f1             	mov    %rsi,%rcx
  40258f:	4c 89 ef             	mov    %r13,%rdi
  402592:	f2 ae                	repnz scas %es:(%rdi),%al
  402594:	48 89 ca             	mov    %rcx,%rdx
  402597:	48 f7 d2             	not    %rdx
  40259a:	48 89 f1             	mov    %rsi,%rcx
  40259d:	4c 89 ff             	mov    %r15,%rdi
  4025a0:	f2 ae                	repnz scas %es:(%rdi),%al
  4025a2:	48 f7 d1             	not    %rcx
  4025a5:	49 89 c8             	mov    %rcx,%r8
  4025a8:	48 89 f1             	mov    %rsi,%rcx
  4025ab:	4c 89 f7             	mov    %r14,%rdi
  4025ae:	f2 ae                	repnz scas %es:(%rdi),%al
  4025b0:	48 f7 d1             	not    %rcx
  4025b3:	4d 8d 44 08 fe       	lea    -0x2(%r8,%rcx,1),%r8
  4025b8:	48 89 f1             	mov    %rsi,%rcx
  4025bb:	48 8b 7c 24 08       	mov    0x8(%rsp),%rdi
  4025c0:	f2 ae                	repnz scas %es:(%rdi),%al
  4025c2:	48 89 c8             	mov    %rcx,%rax
  4025c5:	48 f7 d0             	not    %rax
  4025c8:	49 8d 4c 00 ff       	lea    -0x1(%r8,%rax,1),%rcx
  4025cd:	48 8d 44 52 fd       	lea    -0x3(%rdx,%rdx,2),%rax
  4025d2:	48 8d 84 01 80 00 00 	lea    0x80(%rcx,%rax,1),%rax
  4025d9:	00 
  4025da:	48 3d 00 20 00 00    	cmp    $0x2000,%rax
  4025e0:	0f 87 d0 02 00 00    	ja     4028b6 <submitr+0x40e>
  4025e6:	48 8d b4 24 40 40 00 	lea    0x4040(%rsp),%rsi
  4025ed:	00 
  4025ee:	b9 00 04 00 00       	mov    $0x400,%ecx
  4025f3:	b8 00 00 00 00       	mov    $0x0,%eax
  4025f8:	48 89 f7             	mov    %rsi,%rdi
  4025fb:	f3 48 ab             	rep stos %rax,%es:(%rdi)
  4025fe:	4c 89 ef             	mov    %r13,%rdi
  402601:	e8 91 fd ff ff       	callq  402397 <urlencode>
  402606:	85 c0                	test   %eax,%eax
  402608:	0f 88 1b 03 00 00    	js     402929 <submitr+0x481>
  40260e:	4c 8d ac 24 40 20 00 	lea    0x2040(%rsp),%r13
  402615:	00 
  402616:	41 54                	push   %r12
  402618:	48 8d 84 24 48 40 00 	lea    0x4048(%rsp),%rax
  40261f:	00 
  402620:	50                   	push   %rax
  402621:	4d 89 f9             	mov    %r15,%r9
  402624:	4d 89 f0             	mov    %r14,%r8
  402627:	b9 f8 36 40 00       	mov    $0x4036f8,%ecx
  40262c:	ba 00 20 00 00       	mov    $0x2000,%edx
  402631:	be 01 00 00 00       	mov    $0x1,%esi
  402636:	4c 89 ef             	mov    %r13,%rdi
  402639:	b8 00 00 00 00       	mov    $0x0,%eax
  40263e:	e8 1d e8 ff ff       	callq  400e60 <__sprintf_chk@plt>
  402643:	48 c7 c1 ff ff ff ff 	mov    $0xffffffffffffffff,%rcx
  40264a:	b8 00 00 00 00       	mov    $0x0,%eax
  40264f:	4c 89 ef             	mov    %r13,%rdi
  402652:	f2 ae                	repnz scas %es:(%rdi),%al
  402654:	48 89 ca             	mov    %rcx,%rdx
  402657:	48 f7 d2             	not    %rdx
  40265a:	48 8d 52 ff          	lea    -0x1(%rdx),%rdx
  40265e:	4c 89 ee             	mov    %r13,%rsi
  402661:	89 df                	mov    %ebx,%edi
  402663:	e8 a2 fb ff ff       	callq  40220a <rio_writen>
  402668:	48 83 c4 10          	add    $0x10,%rsp
  40266c:	48 85 c0             	test   %rax,%rax
  40266f:	0f 88 3f 03 00 00    	js     4029b4 <submitr+0x50c>
  402675:	89 de                	mov    %ebx,%esi
  402677:	48 8d 7c 24 30       	lea    0x30(%rsp),%rdi
  40267c:	e8 49 fb ff ff       	callq  4021ca <rio_readinitb>
  402681:	ba 00 20 00 00       	mov    $0x2000,%edx
  402686:	48 8d b4 24 40 20 00 	lea    0x2040(%rsp),%rsi
  40268d:	00 
  40268e:	48 8d 7c 24 30       	lea    0x30(%rsp),%rdi
  402693:	e8 5b fc ff ff       	callq  4022f3 <rio_readlineb>
  402698:	48 85 c0             	test   %rax,%rax
  40269b:	0f 8e 82 03 00 00    	jle    402a23 <submitr+0x57b>
  4026a1:	4c 8d 84 24 40 80 00 	lea    0x8040(%rsp),%r8
  4026a8:	00 
  4026a9:	48 8d 4c 24 1c       	lea    0x1c(%rsp),%rcx
  4026ae:	48 8d 94 24 40 60 00 	lea    0x6040(%rsp),%rdx
  4026b5:	00 
  4026b6:	be 6f 37 40 00       	mov    $0x40376f,%esi
  4026bb:	48 8d bc 24 40 20 00 	lea    0x2040(%rsp),%rdi
  4026c2:	00 
  4026c3:	b8 00 00 00 00       	mov    $0x0,%eax
  4026c8:	e8 f3 e6 ff ff       	callq  400dc0 <__isoc99_sscanf@plt>
  4026cd:	48 8d b4 24 40 20 00 	lea    0x2040(%rsp),%rsi
  4026d4:	00 
  4026d5:	bf 86 37 40 00       	mov    $0x403786,%edi
  4026da:	b9 03 00 00 00       	mov    $0x3,%ecx
  4026df:	f3 a6                	repz cmpsb %es:(%rdi),%ds:(%rsi)
  4026e1:	0f 97 c0             	seta   %al
  4026e4:	1c 00                	sbb    $0x0,%al
  4026e6:	84 c0                	test   %al,%al
  4026e8:	0f 84 b3 03 00 00    	je     402aa1 <submitr+0x5f9>
  4026ee:	ba 00 20 00 00       	mov    $0x2000,%edx
  4026f3:	48 8d b4 24 40 20 00 	lea    0x2040(%rsp),%rsi
  4026fa:	00 
  4026fb:	48 8d 7c 24 30       	lea    0x30(%rsp),%rdi
  402700:	e8 ee fb ff ff       	callq  4022f3 <rio_readlineb>
  402705:	48 85 c0             	test   %rax,%rax
  402708:	7f c3                	jg     4026cd <submitr+0x225>
  40270a:	48 b8 45 72 72 6f 72 	movabs $0x43203a726f727245,%rax
  402711:	3a 20 43 
  402714:	48 ba 6c 69 65 6e 74 	movabs $0x6e7520746e65696c,%rdx
  40271b:	20 75 6e 
  40271e:	48 89 45 00          	mov    %rax,0x0(%rbp)
  402722:	48 89 55 08          	mov    %rdx,0x8(%rbp)
  402726:	48 b8 61 62 6c 65 20 	movabs $0x206f7420656c6261,%rax
  40272d:	74 6f 20 
  402730:	48 ba 72 65 61 64 20 	movabs $0x6165682064616572,%rdx
  402737:	68 65 61 
  40273a:	48 89 45 10          	mov    %rax,0x10(%rbp)
  40273e:	48 89 55 18          	mov    %rdx,0x18(%rbp)
  402742:	48 b8 64 65 72 73 20 	movabs $0x6f72662073726564,%rax
  402749:	66 72 6f 
  40274c:	48 ba 6d 20 74 68 65 	movabs $0x657220656874206d,%rdx
  402753:	20 72 65 
  402756:	48 89 45 20          	mov    %rax,0x20(%rbp)
  40275a:	48 89 55 28          	mov    %rdx,0x28(%rbp)
  40275e:	48 b8 73 75 6c 74 20 	movabs $0x72657320746c7573,%rax
  402765:	73 65 72 
  402768:	48 89 45 30          	mov    %rax,0x30(%rbp)
  40276c:	c7 45 38 76 65 72 00 	movl   $0x726576,0x38(%rbp)
  402773:	89 df                	mov    %ebx,%edi
  402775:	e8 a6 e5 ff ff       	callq  400d20 <close@plt>
  40277a:	b8 ff ff ff ff       	mov    $0xffffffff,%eax
  40277f:	48 8b 9c 24 48 a0 00 	mov    0xa048(%rsp),%rbx
  402786:	00 
  402787:	64 48 33 1c 25 28 00 	xor    %fs:0x28,%rbx
  40278e:	00 00 
  402790:	0f 85 76 04 00 00    	jne    402c0c <submitr+0x764>
  402796:	48 81 c4 58 a0 00 00 	add    $0xa058,%rsp
  40279d:	5b                   	pop    %rbx
  40279e:	5d                   	pop    %rbp
  40279f:	41 5c                	pop    %r12
  4027a1:	41 5d                	pop    %r13
  4027a3:	41 5e                	pop    %r14
  4027a5:	41 5f                	pop    %r15
  4027a7:	c3                   	retq   
  4027a8:	48 b8 45 72 72 6f 72 	movabs $0x43203a726f727245,%rax
  4027af:	3a 20 43 
  4027b2:	48 ba 6c 69 65 6e 74 	movabs $0x6e7520746e65696c,%rdx
  4027b9:	20 75 6e 
  4027bc:	48 89 45 00          	mov    %rax,0x0(%rbp)
  4027c0:	48 89 55 08          	mov    %rdx,0x8(%rbp)
  4027c4:	48 b8 61 62 6c 65 20 	movabs $0x206f7420656c6261,%rax
  4027cb:	74 6f 20 
  4027ce:	48 ba 63 72 65 61 74 	movabs $0x7320657461657263,%rdx
  4027d5:	65 20 73 
  4027d8:	48 89 45 10          	mov    %rax,0x10(%rbp)
  4027dc:	48 89 55 18          	mov    %rdx,0x18(%rbp)
  4027e0:	c7 45 20 6f 63 6b 65 	movl   $0x656b636f,0x20(%rbp)
  4027e7:	66 c7 45 24 74 00    	movw   $0x74,0x24(%rbp)
  4027ed:	b8 ff ff ff ff       	mov    $0xffffffff,%eax
  4027f2:	eb 8b                	jmp    40277f <submitr+0x2d7>
  4027f4:	48 b8 45 72 72 6f 72 	movabs $0x44203a726f727245,%rax
  4027fb:	3a 20 44 
  4027fe:	48 ba 4e 53 20 69 73 	movabs $0x6e7520736920534e,%rdx
  402805:	20 75 6e 
  402808:	48 89 45 00          	mov    %rax,0x0(%rbp)
  40280c:	48 89 55 08          	mov    %rdx,0x8(%rbp)
  402810:	48 b8 61 62 6c 65 20 	movabs $0x206f7420656c6261,%rax
  402817:	74 6f 20 
  40281a:	48 ba 72 65 73 6f 6c 	movabs $0x2065766c6f736572,%rdx
  402821:	76 65 20 
  402824:	48 89 45 10          	mov    %rax,0x10(%rbp)
  402828:	48 89 55 18          	mov    %rdx,0x18(%rbp)
  40282c:	48 b8 73 65 72 76 65 	movabs $0x6120726576726573,%rax
  402833:	72 20 61 
  402836:	48 89 45 20          	mov    %rax,0x20(%rbp)
  40283a:	c7 45 28 64 64 72 65 	movl   $0x65726464,0x28(%rbp)
  402841:	66 c7 45 2c 73 73    	movw   $0x7373,0x2c(%rbp)
  402847:	c6 45 2e 00          	movb   $0x0,0x2e(%rbp)
  40284b:	89 df                	mov    %ebx,%edi
  40284d:	e8 ce e4 ff ff       	callq  400d20 <close@plt>
  402852:	b8 ff ff ff ff       	mov    $0xffffffff,%eax
  402857:	e9 23 ff ff ff       	jmpq   40277f <submitr+0x2d7>
  40285c:	48 b8 45 72 72 6f 72 	movabs $0x55203a726f727245,%rax
  402863:	3a 20 55 
  402866:	48 ba 6e 61 62 6c 65 	movabs $0x6f7420656c62616e,%rdx
  40286d:	20 74 6f 
  402870:	48 89 45 00          	mov    %rax,0x0(%rbp)
  402874:	48 89 55 08          	mov    %rdx,0x8(%rbp)
  402878:	48 b8 20 63 6f 6e 6e 	movabs $0x7463656e6e6f6320,%rax
  40287f:	65 63 74 
  402882:	48 ba 20 74 6f 20 74 	movabs $0x20656874206f7420,%rdx
  402889:	68 65 20 
  40288c:	48 89 45 10          	mov    %rax,0x10(%rbp)
  402890:	48 89 55 18          	mov    %rdx,0x18(%rbp)
  402894:	c7 45 20 73 65 72 76 	movl   $0x76726573,0x20(%rbp)
  40289b:	66 c7 45 24 65 72    	movw   $0x7265,0x24(%rbp)
  4028a1:	c6 45 26 00          	movb   $0x0,0x26(%rbp)
  4028a5:	89 df                	mov    %ebx,%edi
  4028a7:	e8 74 e4 ff ff       	callq  400d20 <close@plt>
  4028ac:	b8 ff ff ff ff       	mov    $0xffffffff,%eax
  4028b1:	e9 c9 fe ff ff       	jmpq   40277f <submitr+0x2d7>
  4028b6:	48 b8 45 72 72 6f 72 	movabs $0x52203a726f727245,%rax
  4028bd:	3a 20 52 
  4028c0:	48 ba 65 73 75 6c 74 	movabs $0x747320746c757365,%rdx
  4028c7:	20 73 74 
  4028ca:	48 89 45 00          	mov    %rax,0x0(%rbp)
  4028ce:	48 89 55 08          	mov    %rdx,0x8(%rbp)
  4028d2:	48 b8 72 69 6e 67 20 	movabs $0x6f6f7420676e6972,%rax
  4028d9:	74 6f 6f 
  4028dc:	48 ba 20 6c 61 72 67 	movabs $0x202e656772616c20,%rdx
  4028e3:	65 2e 20 
  4028e6:	48 89 45 10          	mov    %rax,0x10(%rbp)
  4028ea:	48 89 55 18          	mov    %rdx,0x18(%rbp)
  4028ee:	48 b8 49 6e 63 72 65 	movabs $0x6573616572636e49,%rax
  4028f5:	61 73 65 
  4028f8:	48 ba 20 53 55 42 4d 	movabs $0x5254494d42555320,%rdx
  4028ff:	49 54 52 
  402902:	48 89 45 20          	mov    %rax,0x20(%rbp)
  402906:	48 89 55 28          	mov    %rdx,0x28(%rbp)
  40290a:	48 b8 5f 4d 41 58 42 	movabs $0x46554258414d5f,%rax
  402911:	55 46 00 
  402914:	48 89 45 30          	mov    %rax,0x30(%rbp)
  402918:	89 df                	mov    %ebx,%edi
  40291a:	e8 01 e4 ff ff       	callq  400d20 <close@plt>
  40291f:	b8 ff ff ff ff       	mov    $0xffffffff,%eax
  402924:	e9 56 fe ff ff       	jmpq   40277f <submitr+0x2d7>
  402929:	48 b8 45 72 72 6f 72 	movabs $0x52203a726f727245,%rax
  402930:	3a 20 52 
  402933:	48 ba 65 73 75 6c 74 	movabs $0x747320746c757365,%rdx
  40293a:	20 73 74 
  40293d:	48 89 45 00          	mov    %rax,0x0(%rbp)
  402941:	48 89 55 08          	mov    %rdx,0x8(%rbp)
  402945:	48 b8 72 69 6e 67 20 	movabs $0x6e6f6320676e6972,%rax
  40294c:	63 6f 6e 
  40294f:	48 ba 74 61 69 6e 73 	movabs $0x6e6120736e696174,%rdx
  402956:	20 61 6e 
  402959:	48 89 45 10          	mov    %rax,0x10(%rbp)
  40295d:	48 89 55 18          	mov    %rdx,0x18(%rbp)
  402961:	48 b8 20 69 6c 6c 65 	movabs $0x6c6167656c6c6920,%rax
  402968:	67 61 6c 
  40296b:	48 ba 20 6f 72 20 75 	movabs $0x72706e7520726f20,%rdx
  402972:	6e 70 72 
  402975:	48 89 45 20          	mov    %rax,0x20(%rbp)
  402979:	48 89 55 28          	mov    %rdx,0x28(%rbp)
  40297d:	48 b8 69 6e 74 61 62 	movabs $0x20656c6261746e69,%rax
  402984:	6c 65 20 
  402987:	48 ba 63 68 61 72 61 	movabs $0x6574636172616863,%rdx
  40298e:	63 74 65 
  402991:	48 89 45 30          	mov    %rax,0x30(%rbp)
  402995:	48 89 55 38          	mov    %rdx,0x38(%rbp)
  402999:	66 c7 45 40 72 2e    	movw   $0x2e72,0x40(%rbp)
  40299f:	c6 45 42 00          	movb   $0x0,0x42(%rbp)
  4029a3:	89 df                	mov    %ebx,%edi
  4029a5:	e8 76 e3 ff ff       	callq  400d20 <close@plt>
  4029aa:	b8 ff ff ff ff       	mov    $0xffffffff,%eax
  4029af:	e9 cb fd ff ff       	jmpq   40277f <submitr+0x2d7>
  4029b4:	48 b8 45 72 72 6f 72 	movabs $0x43203a726f727245,%rax
  4029bb:	3a 20 43 
  4029be:	48 ba 6c 69 65 6e 74 	movabs $0x6e7520746e65696c,%rdx
  4029c5:	20 75 6e 
  4029c8:	48 89 45 00          	mov    %rax,0x0(%rbp)
  4029cc:	48 89 55 08          	mov    %rdx,0x8(%rbp)
  4029d0:	48 b8 61 62 6c 65 20 	movabs $0x206f7420656c6261,%rax
  4029d7:	74 6f 20 
  4029da:	48 ba 77 72 69 74 65 	movabs $0x6f74206574697277,%rdx
  4029e1:	20 74 6f 
  4029e4:	48 89 45 10          	mov    %rax,0x10(%rbp)
  4029e8:	48 89 55 18          	mov    %rdx,0x18(%rbp)
  4029ec:	48 b8 20 74 68 65 20 	movabs $0x7365722065687420,%rax
  4029f3:	72 65 73 
  4029f6:	48 ba 75 6c 74 20 73 	movabs $0x7672657320746c75,%rdx
  4029fd:	65 72 76 
  402a00:	48 89 45 20          	mov    %rax,0x20(%rbp)
  402a04:	48 89 55 28          	mov    %rdx,0x28(%rbp)
  402a08:	66 c7 45 30 65 72    	movw   $0x7265,0x30(%rbp)
  402a0e:	c6 45 32 00          	movb   $0x0,0x32(%rbp)
  402a12:	89 df                	mov    %ebx,%edi
  402a14:	e8 07 e3 ff ff       	callq  400d20 <close@plt>
  402a19:	b8 ff ff ff ff       	mov    $0xffffffff,%eax
  402a1e:	e9 5c fd ff ff       	jmpq   40277f <submitr+0x2d7>
  402a23:	48 b8 45 72 72 6f 72 	movabs $0x43203a726f727245,%rax
  402a2a:	3a 20 43 
  402a2d:	48 ba 6c 69 65 6e 74 	movabs $0x6e7520746e65696c,%rdx
  402a34:	20 75 6e 
  402a37:	48 89 45 00          	mov    %rax,0x0(%rbp)
  402a3b:	48 89 55 08          	mov    %rdx,0x8(%rbp)
  402a3f:	48 b8 61 62 6c 65 20 	movabs $0x206f7420656c6261,%rax
  402a46:	74 6f 20 
  402a49:	48 ba 72 65 61 64 20 	movabs $0x7269662064616572,%rdx
  402a50:	66 69 72 
  402a53:	48 89 45 10          	mov    %rax,0x10(%rbp)
  402a57:	48 89 55 18          	mov    %rdx,0x18(%rbp)
  402a5b:	48 b8 73 74 20 68 65 	movabs $0x6564616568207473,%rax
  402a62:	61 64 65 
  402a65:	48 ba 72 20 66 72 6f 	movabs $0x72206d6f72662072,%rdx
  402a6c:	6d 20 72 
  402a6f:	48 89 45 20          	mov    %rax,0x20(%rbp)
  402a73:	48 89 55 28          	mov    %rdx,0x28(%rbp)
  402a77:	48 b8 65 73 75 6c 74 	movabs $0x657320746c757365,%rax
  402a7e:	20 73 65 
  402a81:	48 89 45 30          	mov    %rax,0x30(%rbp)
  402a85:	c7 45 38 72 76 65 72 	movl   $0x72657672,0x38(%rbp)
  402a8c:	c6 45 3c 00          	movb   $0x0,0x3c(%rbp)
  402a90:	89 df                	mov    %ebx,%edi
  402a92:	e8 89 e2 ff ff       	callq  400d20 <close@plt>
  402a97:	b8 ff ff ff ff       	mov    $0xffffffff,%eax
  402a9c:	e9 de fc ff ff       	jmpq   40277f <submitr+0x2d7>
  402aa1:	ba 00 20 00 00       	mov    $0x2000,%edx
  402aa6:	48 8d b4 24 40 20 00 	lea    0x2040(%rsp),%rsi
  402aad:	00 
  402aae:	48 8d 7c 24 30       	lea    0x30(%rsp),%rdi
  402ab3:	e8 3b f8 ff ff       	callq  4022f3 <rio_readlineb>
  402ab8:	48 85 c0             	test   %rax,%rax
  402abb:	0f 8e 90 00 00 00    	jle    402b51 <submitr+0x6a9>
  402ac1:	44 8b 44 24 1c       	mov    0x1c(%rsp),%r8d
  402ac6:	41 81 f8 c8 00 00 00 	cmp    $0xc8,%r8d
  402acd:	0f 85 02 01 00 00    	jne    402bd5 <submitr+0x72d>
  402ad3:	48 8d b4 24 40 20 00 	lea    0x2040(%rsp),%rsi
  402ada:	00 
  402adb:	48 89 ef             	mov    %rbp,%rdi
  402ade:	e8 cd e1 ff ff       	callq  400cb0 <strcpy@plt>
  402ae3:	89 df                	mov    %ebx,%edi
  402ae5:	e8 36 e2 ff ff       	callq  400d20 <close@plt>
  402aea:	bf 80 37 40 00       	mov    $0x403780,%edi
  402aef:	b9 04 00 00 00       	mov    $0x4,%ecx
  402af4:	48 89 ee             	mov    %rbp,%rsi
  402af7:	f3 a6                	repz cmpsb %es:(%rdi),%ds:(%rsi)
  402af9:	0f 97 c0             	seta   %al
  402afc:	1c 00                	sbb    $0x0,%al
  402afe:	0f be c0             	movsbl %al,%eax
  402b01:	85 c0                	test   %eax,%eax
  402b03:	0f 84 76 fc ff ff    	je     40277f <submitr+0x2d7>
  402b09:	bf 84 37 40 00       	mov    $0x403784,%edi
  402b0e:	b9 05 00 00 00       	mov    $0x5,%ecx
  402b13:	48 89 ee             	mov    %rbp,%rsi
  402b16:	f3 a6                	repz cmpsb %es:(%rdi),%ds:(%rsi)
  402b18:	0f 97 c0             	seta   %al
  402b1b:	1c 00                	sbb    $0x0,%al
  402b1d:	0f be c0             	movsbl %al,%eax
  402b20:	85 c0                	test   %eax,%eax
  402b22:	0f 84 57 fc ff ff    	je     40277f <submitr+0x2d7>
  402b28:	bf 89 37 40 00       	mov    $0x403789,%edi
  402b2d:	b9 03 00 00 00       	mov    $0x3,%ecx
  402b32:	48 89 ee             	mov    %rbp,%rsi
  402b35:	f3 a6                	repz cmpsb %es:(%rdi),%ds:(%rsi)
  402b37:	0f 97 c0             	seta   %al
  402b3a:	1c 00                	sbb    $0x0,%al
  402b3c:	0f be c0             	movsbl %al,%eax
  402b3f:	85 c0                	test   %eax,%eax
  402b41:	0f 84 38 fc ff ff    	je     40277f <submitr+0x2d7>
  402b47:	b8 ff ff ff ff       	mov    $0xffffffff,%eax
  402b4c:	e9 2e fc ff ff       	jmpq   40277f <submitr+0x2d7>
  402b51:	48 b8 45 72 72 6f 72 	movabs $0x43203a726f727245,%rax
  402b58:	3a 20 43 
  402b5b:	48 ba 6c 69 65 6e 74 	movabs $0x6e7520746e65696c,%rdx
  402b62:	20 75 6e 
  402b65:	48 89 45 00          	mov    %rax,0x0(%rbp)
  402b69:	48 89 55 08          	mov    %rdx,0x8(%rbp)
  402b6d:	48 b8 61 62 6c 65 20 	movabs $0x206f7420656c6261,%rax
  402b74:	74 6f 20 
  402b77:	48 ba 72 65 61 64 20 	movabs $0x6174732064616572,%rdx
  402b7e:	73 74 61 
  402b81:	48 89 45 10          	mov    %rax,0x10(%rbp)
  402b85:	48 89 55 18          	mov    %rdx,0x18(%rbp)
  402b89:	48 b8 74 75 73 20 6d 	movabs $0x7373656d20737574,%rax
  402b90:	65 73 73 
  402b93:	48 ba 61 67 65 20 66 	movabs $0x6d6f726620656761,%rdx
  402b9a:	72 6f 6d 
  402b9d:	48 89 45 20          	mov    %rax,0x20(%rbp)
  402ba1:	48 89 55 28          	mov    %rdx,0x28(%rbp)
  402ba5:	48 b8 20 72 65 73 75 	movabs $0x20746c7573657220,%rax
  402bac:	6c 74 20 
  402baf:	48 89 45 30          	mov    %rax,0x30(%rbp)
  402bb3:	c7 45 38 73 65 72 76 	movl   $0x76726573,0x38(%rbp)
  402bba:	66 c7 45 3c 65 72    	movw   $0x7265,0x3c(%rbp)
  402bc0:	c6 45 3e 00          	movb   $0x0,0x3e(%rbp)
  402bc4:	89 df                	mov    %ebx,%edi
  402bc6:	e8 55 e1 ff ff       	callq  400d20 <close@plt>
  402bcb:	b8 ff ff ff ff       	mov    $0xffffffff,%eax
  402bd0:	e9 aa fb ff ff       	jmpq   40277f <submitr+0x2d7>
  402bd5:	4c 8d 8c 24 40 80 00 	lea    0x8040(%rsp),%r9
  402bdc:	00 
  402bdd:	b9 38 37 40 00       	mov    $0x403738,%ecx
  402be2:	48 c7 c2 ff ff ff ff 	mov    $0xffffffffffffffff,%rdx
  402be9:	be 01 00 00 00       	mov    $0x1,%esi
  402bee:	48 89 ef             	mov    %rbp,%rdi
  402bf1:	b8 00 00 00 00       	mov    $0x0,%eax
  402bf6:	e8 65 e2 ff ff       	callq  400e60 <__sprintf_chk@plt>
  402bfb:	89 df                	mov    %ebx,%edi
  402bfd:	e8 1e e1 ff ff       	callq  400d20 <close@plt>
  402c02:	b8 ff ff ff ff       	mov    $0xffffffff,%eax
  402c07:	e9 73 fb ff ff       	jmpq   40277f <submitr+0x2d7>
  402c0c:	e8 cf e0 ff ff       	callq  400ce0 <__stack_chk_fail@plt>

0000000000402c11 <init_timeout>:
  402c11:	85 ff                	test   %edi,%edi
  402c13:	74 26                	je     402c3b <init_timeout+0x2a>
  402c15:	53                   	push   %rbx
  402c16:	89 fb                	mov    %edi,%ebx
  402c18:	85 ff                	test   %edi,%edi
  402c1a:	78 18                	js     402c34 <init_timeout+0x23>
  402c1c:	be dc 21 40 00       	mov    $0x4021dc,%esi
  402c21:	bf 0e 00 00 00       	mov    $0xe,%edi
  402c26:	e8 15 e1 ff ff       	callq  400d40 <signal@plt>
  402c2b:	89 df                	mov    %ebx,%edi
  402c2d:	e8 de e0 ff ff       	callq  400d10 <alarm@plt>
  402c32:	5b                   	pop    %rbx
  402c33:	c3                   	retq   
  402c34:	bb 00 00 00 00       	mov    $0x0,%ebx
  402c39:	eb e1                	jmp    402c1c <init_timeout+0xb>
  402c3b:	f3 c3                	repz retq 

0000000000402c3d <init_driver>:
  402c3d:	55                   	push   %rbp
  402c3e:	53                   	push   %rbx
  402c3f:	48 83 ec 28          	sub    $0x28,%rsp
  402c43:	48 89 fd             	mov    %rdi,%rbp
  402c46:	64 48 8b 04 25 28 00 	mov    %fs:0x28,%rax
  402c4d:	00 00 
  402c4f:	48 89 44 24 18       	mov    %rax,0x18(%rsp)
  402c54:	31 c0                	xor    %eax,%eax
  402c56:	be 01 00 00 00       	mov    $0x1,%esi
  402c5b:	bf 0d 00 00 00       	mov    $0xd,%edi
  402c60:	e8 db e0 ff ff       	callq  400d40 <signal@plt>
  402c65:	be 01 00 00 00       	mov    $0x1,%esi
  402c6a:	bf 1d 00 00 00       	mov    $0x1d,%edi
  402c6f:	e8 cc e0 ff ff       	callq  400d40 <signal@plt>
  402c74:	be 01 00 00 00       	mov    $0x1,%esi
  402c79:	bf 1d 00 00 00       	mov    $0x1d,%edi
  402c7e:	e8 bd e0 ff ff       	callq  400d40 <signal@plt>
  402c83:	ba 00 00 00 00       	mov    $0x0,%edx
  402c88:	be 01 00 00 00       	mov    $0x1,%esi
  402c8d:	bf 02 00 00 00       	mov    $0x2,%edi
  402c92:	e8 d9 e1 ff ff       	callq  400e70 <socket@plt>
  402c97:	85 c0                	test   %eax,%eax
  402c99:	0f 88 9c 00 00 00    	js     402d3b <init_driver+0xfe>
  402c9f:	89 c3                	mov    %eax,%ebx
  402ca1:	bf 8c 37 40 00       	mov    $0x40378c,%edi
  402ca6:	e8 a5 e0 ff ff       	callq  400d50 <gethostbyname@plt>
  402cab:	48 85 c0             	test   %rax,%rax
  402cae:	0f 84 d3 00 00 00    	je     402d87 <init_driver+0x14a>
  402cb4:	48 c7 44 24 02 00 00 	movq   $0x0,0x2(%rsp)
  402cbb:	00 00 
  402cbd:	c7 44 24 0a 00 00 00 	movl   $0x0,0xa(%rsp)
  402cc4:	00 
  402cc5:	66 c7 44 24 0e 00 00 	movw   $0x0,0xe(%rsp)
  402ccc:	66 c7 04 24 02 00    	movw   $0x2,(%rsp)
  402cd2:	48 63 50 14          	movslq 0x14(%rax),%rdx
  402cd6:	48 8b 40 18          	mov    0x18(%rax),%rax
  402cda:	48 8b 30             	mov    (%rax),%rsi
  402cdd:	48 8d 7c 24 04       	lea    0x4(%rsp),%rdi
  402ce2:	b9 0c 00 00 00       	mov    $0xc,%ecx
  402ce7:	e8 74 e0 ff ff       	callq  400d60 <__memmove_chk@plt>
  402cec:	66 c7 44 24 02 3c 9a 	movw   $0x9a3c,0x2(%rsp)
  402cf3:	ba 10 00 00 00       	mov    $0x10,%edx
  402cf8:	48 89 e6             	mov    %rsp,%rsi
  402cfb:	89 df                	mov    %ebx,%edi
  402cfd:	e8 3e e1 ff ff       	callq  400e40 <connect@plt>
  402d02:	85 c0                	test   %eax,%eax
  402d04:	0f 88 e5 00 00 00    	js     402def <init_driver+0x1b2>
  402d0a:	89 df                	mov    %ebx,%edi
  402d0c:	e8 0f e0 ff ff       	callq  400d20 <close@plt>
  402d11:	66 c7 45 00 4f 4b    	movw   $0x4b4f,0x0(%rbp)
  402d17:	c6 45 02 00          	movb   $0x0,0x2(%rbp)
  402d1b:	b8 00 00 00 00       	mov    $0x0,%eax
  402d20:	48 8b 4c 24 18       	mov    0x18(%rsp),%rcx
  402d25:	64 48 33 0c 25 28 00 	xor    %fs:0x28,%rcx
  402d2c:	00 00 
  402d2e:	0f 85 0e 01 00 00    	jne    402e42 <init_driver+0x205>
  402d34:	48 83 c4 28          	add    $0x28,%rsp
  402d38:	5b                   	pop    %rbx
  402d39:	5d                   	pop    %rbp
  402d3a:	c3                   	retq   
  402d3b:	48 b8 45 72 72 6f 72 	movabs $0x43203a726f727245,%rax
  402d42:	3a 20 43 
  402d45:	48 ba 6c 69 65 6e 74 	movabs $0x6e7520746e65696c,%rdx
  402d4c:	20 75 6e 
  402d4f:	48 89 45 00          	mov    %rax,0x0(%rbp)
  402d53:	48 89 55 08          	mov    %rdx,0x8(%rbp)
  402d57:	48 b8 61 62 6c 65 20 	movabs $0x206f7420656c6261,%rax
  402d5e:	74 6f 20 
  402d61:	48 ba 63 72 65 61 74 	movabs $0x7320657461657263,%rdx
  402d68:	65 20 73 
  402d6b:	48 89 45 10          	mov    %rax,0x10(%rbp)
  402d6f:	48 89 55 18          	mov    %rdx,0x18(%rbp)
  402d73:	c7 45 20 6f 63 6b 65 	movl   $0x656b636f,0x20(%rbp)
  402d7a:	66 c7 45 24 74 00    	movw   $0x74,0x24(%rbp)
  402d80:	b8 ff ff ff ff       	mov    $0xffffffff,%eax
  402d85:	eb 99                	jmp    402d20 <init_driver+0xe3>
  402d87:	48 b8 45 72 72 6f 72 	movabs $0x44203a726f727245,%rax
  402d8e:	3a 20 44 
  402d91:	48 ba 4e 53 20 69 73 	movabs $0x6e7520736920534e,%rdx
  402d98:	20 75 6e 
  402d9b:	48 89 45 00          	mov    %rax,0x0(%rbp)
  402d9f:	48 89 55 08          	mov    %rdx,0x8(%rbp)
  402da3:	48 b8 61 62 6c 65 20 	movabs $0x206f7420656c6261,%rax
  402daa:	74 6f 20 
  402dad:	48 ba 72 65 73 6f 6c 	movabs $0x2065766c6f736572,%rdx
  402db4:	76 65 20 
  402db7:	48 89 45 10          	mov    %rax,0x10(%rbp)
  402dbb:	48 89 55 18          	mov    %rdx,0x18(%rbp)
  402dbf:	48 b8 73 65 72 76 65 	movabs $0x6120726576726573,%rax
  402dc6:	72 20 61 
  402dc9:	48 89 45 20          	mov    %rax,0x20(%rbp)
  402dcd:	c7 45 28 64 64 72 65 	movl   $0x65726464,0x28(%rbp)
  402dd4:	66 c7 45 2c 73 73    	movw   $0x7373,0x2c(%rbp)
  402dda:	c6 45 2e 00          	movb   $0x0,0x2e(%rbp)
  402dde:	89 df                	mov    %ebx,%edi
  402de0:	e8 3b df ff ff       	callq  400d20 <close@plt>
  402de5:	b8 ff ff ff ff       	mov    $0xffffffff,%eax
  402dea:	e9 31 ff ff ff       	jmpq   402d20 <init_driver+0xe3>
  402def:	48 b8 45 72 72 6f 72 	movabs $0x55203a726f727245,%rax
  402df6:	3a 20 55 
  402df9:	48 ba 6e 61 62 6c 65 	movabs $0x6f7420656c62616e,%rdx
  402e00:	20 74 6f 
  402e03:	48 89 45 00          	mov    %rax,0x0(%rbp)
  402e07:	48 89 55 08          	mov    %rdx,0x8(%rbp)
  402e0b:	48 b8 20 63 6f 6e 6e 	movabs $0x7463656e6e6f6320,%rax
  402e12:	65 63 74 
  402e15:	48 ba 20 74 6f 20 73 	movabs $0x76726573206f7420,%rdx
  402e1c:	65 72 76 
  402e1f:	48 89 45 10          	mov    %rax,0x10(%rbp)
  402e23:	48 89 55 18          	mov    %rdx,0x18(%rbp)
  402e27:	66 c7 45 20 65 72    	movw   $0x7265,0x20(%rbp)
  402e2d:	c6 45 22 00          	movb   $0x0,0x22(%rbp)
  402e31:	89 df                	mov    %ebx,%edi
  402e33:	e8 e8 de ff ff       	callq  400d20 <close@plt>
  402e38:	b8 ff ff ff ff       	mov    $0xffffffff,%eax
  402e3d:	e9 de fe ff ff       	jmpq   402d20 <init_driver+0xe3>
  402e42:	e8 99 de ff ff       	callq  400ce0 <__stack_chk_fail@plt>

0000000000402e47 <driver_post>:
  402e47:	53                   	push   %rbx
  402e48:	4c 89 cb             	mov    %r9,%rbx
  402e4b:	45 85 c0             	test   %r8d,%r8d
  402e4e:	75 18                	jne    402e68 <driver_post+0x21>
  402e50:	48 85 ff             	test   %rdi,%rdi
  402e53:	74 05                	je     402e5a <driver_post+0x13>
  402e55:	80 3f 00             	cmpb   $0x0,(%rdi)
  402e58:	75 35                	jne    402e8f <driver_post+0x48>
  402e5a:	66 c7 03 4f 4b       	movw   $0x4b4f,(%rbx)
  402e5f:	c6 43 02 00          	movb   $0x0,0x2(%rbx)
  402e63:	44 89 c0             	mov    %r8d,%eax
  402e66:	5b                   	pop    %rbx
  402e67:	c3                   	retq   
  402e68:	48 89 ca             	mov    %rcx,%rdx
  402e6b:	be a4 37 40 00       	mov    $0x4037a4,%esi
  402e70:	bf 01 00 00 00       	mov    $0x1,%edi
  402e75:	b8 00 00 00 00       	mov    $0x0,%eax
  402e7a:	e8 61 df ff ff       	callq  400de0 <__printf_chk@plt>
  402e7f:	66 c7 03 4f 4b       	movw   $0x4b4f,(%rbx)
  402e84:	c6 43 02 00          	movb   $0x0,0x2(%rbx)
  402e88:	b8 00 00 00 00       	mov    $0x0,%eax
  402e8d:	eb d7                	jmp    402e66 <driver_post+0x1f>
  402e8f:	48 83 ec 08          	sub    $0x8,%rsp
  402e93:	41 51                	push   %r9
  402e95:	49 89 c9             	mov    %rcx,%r9
  402e98:	49 89 d0             	mov    %rdx,%r8
  402e9b:	48 89 f9             	mov    %rdi,%rcx
  402e9e:	48 89 f2             	mov    %rsi,%rdx
  402ea1:	be 9a 3c 00 00       	mov    $0x3c9a,%esi
  402ea6:	bf 8c 37 40 00       	mov    $0x40378c,%edi
  402eab:	e8 f8 f5 ff ff       	callq  4024a8 <submitr>
  402eb0:	48 83 c4 10          	add    $0x10,%rsp
  402eb4:	eb b0                	jmp    402e66 <driver_post+0x1f>

0000000000402eb6 <check>:
  402eb6:	89 f8                	mov    %edi,%eax
  402eb8:	c1 e8 1c             	shr    $0x1c,%eax
  402ebb:	85 c0                	test   %eax,%eax
  402ebd:	74 1d                	je     402edc <check+0x26>
  402ebf:	b9 00 00 00 00       	mov    $0x0,%ecx
  402ec4:	83 f9 1f             	cmp    $0x1f,%ecx
  402ec7:	7f 0d                	jg     402ed6 <check+0x20>
  402ec9:	89 f8                	mov    %edi,%eax
  402ecb:	d3 e8                	shr    %cl,%eax
  402ecd:	3c 0a                	cmp    $0xa,%al
  402ecf:	74 11                	je     402ee2 <check+0x2c>
  402ed1:	83 c1 08             	add    $0x8,%ecx
  402ed4:	eb ee                	jmp    402ec4 <check+0xe>
  402ed6:	b8 01 00 00 00       	mov    $0x1,%eax
  402edb:	c3                   	retq   
  402edc:	b8 00 00 00 00       	mov    $0x0,%eax
  402ee1:	c3                   	retq   
  402ee2:	b8 00 00 00 00       	mov    $0x0,%eax
  402ee7:	c3                   	retq   

0000000000402ee8 <gencookie>:
  402ee8:	53                   	push   %rbx
  402ee9:	83 c7 01             	add    $0x1,%edi
  402eec:	e8 9f dd ff ff       	callq  400c90 <srandom@plt>
  402ef1:	e8 aa de ff ff       	callq  400da0 <random@plt>
  402ef6:	89 c3                	mov    %eax,%ebx
  402ef8:	89 c7                	mov    %eax,%edi
  402efa:	e8 b7 ff ff ff       	callq  402eb6 <check>
  402eff:	85 c0                	test   %eax,%eax
  402f01:	74 ee                	je     402ef1 <gencookie+0x9>
  402f03:	89 d8                	mov    %ebx,%eax
  402f05:	5b                   	pop    %rbx
  402f06:	c3                   	retq   
  402f07:	66 0f 1f 84 00 00 00 	nopw   0x0(%rax,%rax,1)
  402f0e:	00 00 

0000000000402f10 <__libc_csu_init>:
  402f10:	41 57                	push   %r15
  402f12:	41 56                	push   %r14
  402f14:	49 89 d7             	mov    %rdx,%r15
  402f17:	41 55                	push   %r13
  402f19:	41 54                	push   %r12
  402f1b:	4c 8d 25 ee 1e 20 00 	lea    0x201eee(%rip),%r12        # 604e10 <__frame_dummy_init_array_entry>
  402f22:	55                   	push   %rbp
  402f23:	48 8d 2d ee 1e 20 00 	lea    0x201eee(%rip),%rbp        # 604e18 <__init_array_end>
  402f2a:	53                   	push   %rbx
  402f2b:	41 89 fd             	mov    %edi,%r13d
  402f2e:	49 89 f6             	mov    %rsi,%r14
  402f31:	4c 29 e5             	sub    %r12,%rbp
  402f34:	48 83 ec 08          	sub    $0x8,%rsp
  402f38:	48 c1 fd 03          	sar    $0x3,%rbp
  402f3c:	e8 07 dd ff ff       	callq  400c48 <_init>
  402f41:	48 85 ed             	test   %rbp,%rbp
  402f44:	74 20                	je     402f66 <__libc_csu_init+0x56>
  402f46:	31 db                	xor    %ebx,%ebx
  402f48:	0f 1f 84 00 00 00 00 	nopl   0x0(%rax,%rax,1)
  402f4f:	00 
  402f50:	4c 89 fa             	mov    %r15,%rdx
  402f53:	4c 89 f6             	mov    %r14,%rsi
  402f56:	44 89 ef             	mov    %r13d,%edi
  402f59:	41 ff 14 dc          	callq  *(%r12,%rbx,8)
  402f5d:	48 83 c3 01          	add    $0x1,%rbx
  402f61:	48 39 dd             	cmp    %rbx,%rbp
  402f64:	75 ea                	jne    402f50 <__libc_csu_init+0x40>
  402f66:	48 83 c4 08          	add    $0x8,%rsp
  402f6a:	5b                   	pop    %rbx
  402f6b:	5d                   	pop    %rbp
  402f6c:	41 5c                	pop    %r12
  402f6e:	41 5d                	pop    %r13
  402f70:	41 5e                	pop    %r14
  402f72:	41 5f                	pop    %r15
  402f74:	c3                   	retq   
  402f75:	90                   	nop
  402f76:	66 2e 0f 1f 84 00 00 	nopw   %cs:0x0(%rax,%rax,1)
  402f7d:	00 00 00 

0000000000402f80 <__libc_csu_fini>:
  402f80:	f3 c3                	repz retq 

Disassembly of section .fini:

0000000000402f84 <_fini>:
  402f84:	48 83 ec 08          	sub    $0x8,%rsp
  402f88:	48 83 c4 08          	add    $0x8,%rsp
  402f8c:	c3                   	retq   
